
lab7.elf:     file format elf32-avr

Sections:
Idx Name          Size      VMA       LMA       File off  Algn
  0 .data         00000122  00800100  00002502  00002596  2**0
                  CONTENTS, ALLOC, LOAD, DATA
  1 .text         00002502  00000000  00000000  00000094  2**1
                  CONTENTS, ALLOC, LOAD, READONLY, CODE
  2 .bss          0000000c  00800222  00800222  000026b8  2**0
                  ALLOC
  3 .comment      0000005c  00000000  00000000  000026b8  2**0
                  CONTENTS, READONLY
  4 .note.gnu.avr.deviceinfo 0000003c  00000000  00000000  00002714  2**2
                  CONTENTS, READONLY
  5 .debug_aranges 00000310  00000000  00000000  00002750  2**0
                  CONTENTS, READONLY, DEBUGGING
  6 .debug_info   000034ce  00000000  00000000  00002a60  2**0
                  CONTENTS, READONLY, DEBUGGING
  7 .debug_abbrev 0000158f  00000000  00000000  00005f2e  2**0
                  CONTENTS, READONLY, DEBUGGING
  8 .debug_line   00001c52  00000000  00000000  000074bd  2**0
                  CONTENTS, READONLY, DEBUGGING
  9 .debug_frame  000007b4  00000000  00000000  00009110  2**2
                  CONTENTS, READONLY, DEBUGGING
 10 .debug_str    00000b17  00000000  00000000  000098c4  2**0
                  CONTENTS, READONLY, DEBUGGING
 11 .debug_loc    00001d73  00000000  00000000  0000a3db  2**0
                  CONTENTS, READONLY, DEBUGGING
 12 .debug_ranges 00000270  00000000  00000000  0000c14e  2**0
                  CONTENTS, READONLY, DEBUGGING

Disassembly of section .text:

00000000 <__vectors>:
       0:	0c 94 b4 01 	jmp	0x368	; 0x368 <__ctors_end>
       4:	0c 94 8e 03 	jmp	0x71c	; 0x71c <__vector_1>
       8:	0c 94 a2 03 	jmp	0x744	; 0x744 <__vector_2>
       c:	0c 94 d1 01 	jmp	0x3a2	; 0x3a2 <__bad_interrupt>
      10:	0c 94 d1 01 	jmp	0x3a2	; 0x3a2 <__bad_interrupt>
      14:	0c 94 d1 01 	jmp	0x3a2	; 0x3a2 <__bad_interrupt>
      18:	0c 94 d1 01 	jmp	0x3a2	; 0x3a2 <__bad_interrupt>
      1c:	0c 94 d1 01 	jmp	0x3a2	; 0x3a2 <__bad_interrupt>
      20:	0c 94 d1 01 	jmp	0x3a2	; 0x3a2 <__bad_interrupt>
      24:	0c 94 d1 01 	jmp	0x3a2	; 0x3a2 <__bad_interrupt>
      28:	0c 94 d1 01 	jmp	0x3a2	; 0x3a2 <__bad_interrupt>
      2c:	0c 94 d1 01 	jmp	0x3a2	; 0x3a2 <__bad_interrupt>
      30:	0c 94 d1 01 	jmp	0x3a2	; 0x3a2 <__bad_interrupt>
      34:	0c 94 d1 01 	jmp	0x3a2	; 0x3a2 <__bad_interrupt>
      38:	0c 94 d1 01 	jmp	0x3a2	; 0x3a2 <__bad_interrupt>
      3c:	0c 94 d1 01 	jmp	0x3a2	; 0x3a2 <__bad_interrupt>
      40:	0c 94 23 04 	jmp	0x846	; 0x846 <__vector_16>
      44:	0c 94 d1 01 	jmp	0x3a2	; 0x3a2 <__bad_interrupt>
      48:	0c 94 d1 01 	jmp	0x3a2	; 0x3a2 <__bad_interrupt>
      4c:	0c 94 d1 01 	jmp	0x3a2	; 0x3a2 <__bad_interrupt>
      50:	0c 94 d1 01 	jmp	0x3a2	; 0x3a2 <__bad_interrupt>
      54:	0c 94 d1 01 	jmp	0x3a2	; 0x3a2 <__bad_interrupt>
      58:	0c 94 d1 01 	jmp	0x3a2	; 0x3a2 <__bad_interrupt>
      5c:	0c 94 d1 01 	jmp	0x3a2	; 0x3a2 <__bad_interrupt>
      60:	0c 94 d1 01 	jmp	0x3a2	; 0x3a2 <__bad_interrupt>
      64:	0c 94 d1 01 	jmp	0x3a2	; 0x3a2 <__bad_interrupt>
      68:	0c 94 d1 01 	jmp	0x3a2	; 0x3a2 <__bad_interrupt>
      6c:	0c 94 d1 01 	jmp	0x3a2	; 0x3a2 <__bad_interrupt>

00000070 <__trampolines_end>:
	...
      78:	00 06       	cpc	r0, r16
      7a:	5f 5f       	subi	r21, 0xFF	; 255
      7c:	06 00       	.word	0x0006	; ????
      7e:	00 00       	nop
      80:	00 07       	cpc	r16, r16
      82:	07 00       	.word	0x0007	; ????
      84:	07 07       	cpc	r16, r23
      86:	00 00       	nop
      88:	14 7f       	andi	r17, 0xF4	; 244
      8a:	7f 14       	cp	r7, r15
      8c:	7f 7f       	andi	r23, 0xFF	; 255
      8e:	14 00       	.word	0x0014	; ????
      90:	24 2e       	mov	r2, r20
      92:	6b 6b       	ori	r22, 0xBB	; 187
      94:	3a 12       	cpse	r3, r26
      96:	00 00       	nop
      98:	46 66       	ori	r20, 0x66	; 102
      9a:	30 18       	sub	r3, r0
      9c:	0c 66       	ori	r16, 0x6C	; 108
      9e:	62 00       	.word	0x0062	; ????
      a0:	30 7a       	andi	r19, 0xA0	; 160
      a2:	4f 5d       	subi	r20, 0xDF	; 223
      a4:	37 7a       	andi	r19, 0xA7	; 167
      a6:	48 00       	.word	0x0048	; ????
      a8:	04 07       	cpc	r16, r20
      aa:	03 00       	.word	0x0003	; ????
      ac:	00 00       	nop
      ae:	00 00       	nop
      b0:	00 1c       	adc	r0, r0
      b2:	3e 63       	ori	r19, 0x3E	; 62
      b4:	41 00       	.word	0x0041	; ????
      b6:	00 00       	nop
      b8:	00 41       	sbci	r16, 0x10	; 16
      ba:	63 3e       	cpi	r22, 0xE3	; 227
      bc:	1c 00       	.word	0x001c	; ????
      be:	00 00       	nop
      c0:	08 2a       	or	r0, r24
      c2:	3e 1c       	adc	r3, r14
      c4:	1c 3e       	cpi	r17, 0xEC	; 236
      c6:	2a 08       	sbc	r2, r10
      c8:	08 08       	sbc	r0, r8
      ca:	3e 3e       	cpi	r19, 0xEE	; 238
      cc:	08 08       	sbc	r0, r8
      ce:	00 00       	nop
      d0:	00 a0       	ldd	r0, Z+32	; 0x20
      d2:	e0 60       	ori	r30, 0x00	; 0
      d4:	00 00       	nop
      d6:	00 00       	nop
      d8:	08 08       	sbc	r0, r8
      da:	08 08       	sbc	r0, r8
      dc:	08 08       	sbc	r0, r8
      de:	00 00       	nop
      e0:	00 00       	nop
      e2:	60 60       	ori	r22, 0x00	; 0
      e4:	00 00       	nop
      e6:	00 00       	nop
      e8:	60 30       	cpi	r22, 0x00	; 0
      ea:	18 0c       	add	r1, r8
      ec:	06 03       	mulsu	r16, r22
      ee:	01 00       	.word	0x0001	; ????
      f0:	3e 7f       	andi	r19, 0xFE	; 254
      f2:	59 4d       	sbci	r21, 0xD9	; 217
      f4:	7f 3e       	cpi	r23, 0xEF	; 239
      f6:	00 00       	nop
      f8:	42 42       	sbci	r20, 0x22	; 34
      fa:	7f 7f       	andi	r23, 0xFF	; 255
      fc:	40 40       	sbci	r20, 0x00	; 0
      fe:	00 00       	nop
     100:	62 73       	andi	r22, 0x32	; 50
     102:	59 49       	sbci	r21, 0x99	; 153
     104:	6f 66       	ori	r22, 0x6F	; 111
     106:	00 00       	nop
     108:	22 63       	ori	r18, 0x32	; 50
     10a:	49 49       	sbci	r20, 0x99	; 153
     10c:	7f 36       	cpi	r23, 0x6F	; 111
     10e:	00 00       	nop
     110:	18 1c       	adc	r1, r8
     112:	16 13       	cpse	r17, r22
     114:	7f 7f       	andi	r23, 0xFF	; 255
     116:	10 00       	.word	0x0010	; ????
     118:	27 67       	ori	r18, 0x77	; 119
     11a:	45 45       	sbci	r20, 0x55	; 85
     11c:	7d 39       	cpi	r23, 0x9D	; 157
     11e:	00 00       	nop
     120:	3c 7e       	andi	r19, 0xEC	; 236
     122:	4b 49       	sbci	r20, 0x9B	; 155
     124:	79 30       	cpi	r23, 0x09	; 9
     126:	00 00       	nop
     128:	03 63       	ori	r16, 0x33	; 51
     12a:	71 19       	sub	r23, r1
     12c:	0f 07       	cpc	r16, r31
     12e:	00 00       	nop
     130:	36 7f       	andi	r19, 0xF6	; 246
     132:	49 49       	sbci	r20, 0x99	; 153
     134:	7f 36       	cpi	r23, 0x6F	; 111
     136:	00 00       	nop
     138:	06 4f       	sbci	r16, 0xF6	; 246
     13a:	49 69       	ori	r20, 0x99	; 153
     13c:	3f 1e       	adc	r3, r31
     13e:	00 00       	nop
     140:	00 00       	nop
     142:	6c 6c       	ori	r22, 0xCC	; 204
     144:	00 00       	nop
     146:	00 00       	nop
     148:	00 a0       	ldd	r0, Z+32	; 0x20
     14a:	ec 6c       	ori	r30, 0xCC	; 204
     14c:	00 00       	nop
     14e:	00 00       	nop
     150:	08 1c       	adc	r0, r8
     152:	36 63       	ori	r19, 0x36	; 54
     154:	41 00       	.word	0x0041	; ????
     156:	00 00       	nop
     158:	14 14       	cp	r1, r4
     15a:	14 14       	cp	r1, r4
     15c:	14 14       	cp	r1, r4
     15e:	00 00       	nop
     160:	00 41       	sbci	r16, 0x10	; 16
     162:	63 36       	cpi	r22, 0x63	; 99
     164:	1c 08       	sbc	r1, r12
     166:	00 00       	nop
     168:	02 03       	mulsu	r16, r18
     16a:	51 59       	subi	r21, 0x91	; 145
     16c:	0f 06       	cpc	r0, r31
     16e:	00 00       	nop
     170:	3e 7f       	andi	r19, 0xFE	; 254
     172:	41 5d       	subi	r20, 0xD1	; 209
     174:	5d 1f       	adc	r21, r29
     176:	1e 00       	.word	0x001e	; ????
     178:	7c 7e       	andi	r23, 0xEC	; 236
     17a:	13 13       	cpse	r17, r19
     17c:	7e 7c       	andi	r23, 0xCE	; 206
     17e:	00 00       	nop
     180:	41 7f       	andi	r20, 0xF1	; 241
     182:	7f 49       	sbci	r23, 0x9F	; 159
     184:	49 7f       	andi	r20, 0xF9	; 249
     186:	36 00       	.word	0x0036	; ????
     188:	1c 3e       	cpi	r17, 0xEC	; 236
     18a:	63 41       	sbci	r22, 0x13	; 19
     18c:	41 63       	ori	r20, 0x31	; 49
     18e:	22 00       	.word	0x0022	; ????
     190:	41 7f       	andi	r20, 0xF1	; 241
     192:	7f 41       	sbci	r23, 0x1F	; 31
     194:	63 7f       	andi	r22, 0xF3	; 243
     196:	1c 00       	.word	0x001c	; ????
     198:	41 7f       	andi	r20, 0xF1	; 241
     19a:	7f 49       	sbci	r23, 0x9F	; 159
     19c:	5d 41       	sbci	r21, 0x1D	; 29
     19e:	63 00       	.word	0x0063	; ????
     1a0:	41 7f       	andi	r20, 0xF1	; 241
     1a2:	7f 49       	sbci	r23, 0x9F	; 159
     1a4:	1d 01       	movw	r2, r26
     1a6:	03 00       	.word	0x0003	; ????
     1a8:	1c 3e       	cpi	r17, 0xEC	; 236
     1aa:	63 41       	sbci	r22, 0x13	; 19
     1ac:	51 73       	andi	r21, 0x31	; 49
     1ae:	72 00       	.word	0x0072	; ????
     1b0:	7f 7f       	andi	r23, 0xFF	; 255
     1b2:	08 08       	sbc	r0, r8
     1b4:	7f 7f       	andi	r23, 0xFF	; 255
     1b6:	00 00       	nop
     1b8:	00 41       	sbci	r16, 0x10	; 16
     1ba:	7f 7f       	andi	r23, 0xFF	; 255
     1bc:	41 00       	.word	0x0041	; ????
     1be:	00 00       	nop
     1c0:	30 70       	andi	r19, 0x00	; 0
     1c2:	40 41       	sbci	r20, 0x10	; 16
     1c4:	7f 3f       	cpi	r23, 0xFF	; 255
     1c6:	01 00       	.word	0x0001	; ????
     1c8:	41 7f       	andi	r20, 0xF1	; 241
     1ca:	7f 08       	sbc	r7, r15
     1cc:	1c 77       	andi	r17, 0x7C	; 124
     1ce:	63 00       	.word	0x0063	; ????
     1d0:	41 7f       	andi	r20, 0xF1	; 241
     1d2:	7f 41       	sbci	r23, 0x1F	; 31
     1d4:	40 60       	ori	r20, 0x00	; 0
     1d6:	70 00       	.word	0x0070	; ????
     1d8:	7f 7f       	andi	r23, 0xFF	; 255
     1da:	06 0c       	add	r0, r6
     1dc:	06 7f       	andi	r16, 0xF6	; 246
     1de:	7f 00       	.word	0x007f	; ????
     1e0:	7f 7f       	andi	r23, 0xFF	; 255
     1e2:	06 0c       	add	r0, r6
     1e4:	18 7f       	andi	r17, 0xF8	; 248
     1e6:	7f 00       	.word	0x007f	; ????
     1e8:	1c 3e       	cpi	r17, 0xEC	; 236
     1ea:	63 41       	sbci	r22, 0x13	; 19
     1ec:	63 3e       	cpi	r22, 0xE3	; 227
     1ee:	1c 00       	.word	0x001c	; ????
     1f0:	41 7f       	andi	r20, 0xF1	; 241
     1f2:	7f 49       	sbci	r23, 0x9F	; 159
     1f4:	09 0f       	add	r16, r25
     1f6:	06 00       	.word	0x0006	; ????
     1f8:	1e 3f       	cpi	r17, 0xFE	; 254
     1fa:	21 71       	andi	r18, 0x11	; 17
     1fc:	7f 5e       	subi	r23, 0xEF	; 239
     1fe:	00 00       	nop
     200:	41 7f       	andi	r20, 0xF1	; 241
     202:	7f 19       	sub	r23, r15
     204:	39 6f       	ori	r19, 0xF9	; 249
     206:	46 00       	.word	0x0046	; ????
     208:	26 67       	ori	r18, 0x76	; 118
     20a:	4d 59       	subi	r20, 0x9D	; 157
     20c:	7b 32       	cpi	r23, 0x2B	; 43
     20e:	00 00       	nop
     210:	03 41       	sbci	r16, 0x13	; 19
     212:	7f 7f       	andi	r23, 0xFF	; 255
     214:	41 03       	mulsu	r20, r17
     216:	00 00       	nop
     218:	7f 7f       	andi	r23, 0xFF	; 255
     21a:	40 40       	sbci	r20, 0x00	; 0
     21c:	7f 7f       	andi	r23, 0xFF	; 255
     21e:	00 00       	nop
     220:	1f 3f       	cpi	r17, 0xFF	; 255
     222:	60 60       	ori	r22, 0x00	; 0
     224:	3f 1f       	adc	r19, r31
     226:	00 00       	nop
     228:	7f 7f       	andi	r23, 0xFF	; 255
     22a:	30 18       	sub	r3, r0
     22c:	30 7f       	andi	r19, 0xF0	; 240
     22e:	7f 00       	.word	0x007f	; ????
     230:	63 77       	andi	r22, 0x73	; 115
     232:	1c 08       	sbc	r1, r12
     234:	1c 77       	andi	r17, 0x7C	; 124
     236:	63 00       	.word	0x0063	; ????
     238:	07 4f       	sbci	r16, 0xF7	; 247
     23a:	78 78       	andi	r23, 0x88	; 136
     23c:	4f 07       	cpc	r20, r31
     23e:	00 00       	nop
     240:	67 73       	andi	r22, 0x37	; 55
     242:	59 4d       	sbci	r21, 0xD9	; 217
     244:	47 63       	ori	r20, 0x37	; 55
     246:	71 00       	.word	0x0071	; ????
     248:	00 7f       	andi	r16, 0xF0	; 240
     24a:	7f 41       	sbci	r23, 0x1F	; 31
     24c:	41 00       	.word	0x0041	; ????
     24e:	00 00       	nop
     250:	01 03       	mulsu	r16, r17
     252:	06 0c       	add	r0, r6
     254:	18 30       	cpi	r17, 0x08	; 8
     256:	60 00       	.word	0x0060	; ????
     258:	00 41       	sbci	r16, 0x10	; 16
     25a:	41 7f       	andi	r20, 0xF1	; 241
     25c:	7f 00       	.word	0x007f	; ????
     25e:	00 00       	nop
     260:	08 0c       	add	r0, r8
     262:	06 03       	mulsu	r16, r22
     264:	06 0c       	add	r0, r6
     266:	08 00       	.word	0x0008	; ????
     268:	80 80       	ld	r8, Z
     26a:	80 80       	ld	r8, Z
     26c:	80 80       	ld	r8, Z
     26e:	80 80       	ld	r8, Z
     270:	00 00       	nop
     272:	03 07       	cpc	r16, r19
     274:	04 00       	.word	0x0004	; ????
     276:	00 00       	nop
     278:	20 74       	andi	r18, 0x40	; 64
     27a:	54 54       	subi	r21, 0x44	; 68
     27c:	3c 78       	andi	r19, 0x8C	; 140
     27e:	40 00       	.word	0x0040	; ????
     280:	41 3f       	cpi	r20, 0xF1	; 241
     282:	7f 44       	sbci	r23, 0x4F	; 79
     284:	44 7c       	andi	r20, 0xC4	; 196
     286:	38 00       	.word	0x0038	; ????
     288:	38 7c       	andi	r19, 0xC8	; 200
     28a:	44 44       	sbci	r20, 0x44	; 68
     28c:	6c 28       	or	r6, r12
     28e:	00 00       	nop
     290:	30 78       	andi	r19, 0x80	; 128
     292:	48 49       	sbci	r20, 0x98	; 152
     294:	3f 7f       	andi	r19, 0xFF	; 255
     296:	40 00       	.word	0x0040	; ????
     298:	38 7c       	andi	r19, 0xC8	; 200
     29a:	54 54       	subi	r21, 0x44	; 68
     29c:	5c 18       	sub	r5, r12
     29e:	00 00       	nop
     2a0:	48 7e       	andi	r20, 0xE8	; 232
     2a2:	7f 49       	sbci	r23, 0x9F	; 159
     2a4:	03 02       	muls	r16, r19
     2a6:	00 00       	nop
     2a8:	98 bc       	out	0x28, r9	; 40
     2aa:	a4 a4       	ldd	r10, Z+44	; 0x2c
     2ac:	f8 7c       	andi	r31, 0xC8	; 200
     2ae:	04 00       	.word	0x0004	; ????
     2b0:	41 7f       	andi	r20, 0xF1	; 241
     2b2:	7f 08       	sbc	r7, r15
     2b4:	04 7c       	andi	r16, 0xC4	; 196
     2b6:	78 00       	.word	0x0078	; ????
     2b8:	00 44       	sbci	r16, 0x40	; 64
     2ba:	7d 7d       	andi	r23, 0xDD	; 221
     2bc:	40 00       	.word	0x0040	; ????
     2be:	00 00       	nop
     2c0:	40 c4       	rjmp	.+2176   	; 0xb42 <MENU_start+0x36>
     2c2:	84 fd       	sbrc	r24, 4
     2c4:	7d 00       	.word	0x007d	; ????
     2c6:	00 00       	nop
     2c8:	41 7f       	andi	r20, 0xF1	; 241
     2ca:	7f 10       	cpse	r7, r15
     2cc:	38 6c       	ori	r19, 0xC8	; 200
     2ce:	44 00       	.word	0x0044	; ????
     2d0:	00 41       	sbci	r16, 0x10	; 16
     2d2:	7f 7f       	andi	r23, 0xFF	; 255
     2d4:	40 00       	.word	0x0040	; ????
     2d6:	00 00       	nop
     2d8:	7c 7c       	andi	r23, 0xCC	; 204
     2da:	0c 18       	sub	r0, r12
     2dc:	0c 7c       	andi	r16, 0xCC	; 204
     2de:	78 00       	.word	0x0078	; ????
     2e0:	7c 7c       	andi	r23, 0xCC	; 204
     2e2:	04 04       	cpc	r0, r4
     2e4:	7c 78       	andi	r23, 0x8C	; 140
     2e6:	00 00       	nop
     2e8:	38 7c       	andi	r19, 0xC8	; 200
     2ea:	44 44       	sbci	r20, 0x44	; 68
     2ec:	7c 38       	cpi	r23, 0x8C	; 140
     2ee:	00 00       	nop
     2f0:	84 fc       	sbrc	r8, 4
     2f2:	f8 a4       	ldd	r15, Y+40	; 0x28
     2f4:	24 3c       	cpi	r18, 0xC4	; 196
     2f6:	18 00       	.word	0x0018	; ????
     2f8:	18 3c       	cpi	r17, 0xC8	; 200
     2fa:	24 a4       	ldd	r2, Z+44	; 0x2c
     2fc:	f8 fc       	.word	0xfcf8	; ????
     2fe:	84 00       	.word	0x0084	; ????
     300:	44 7c       	andi	r20, 0xC4	; 196
     302:	78 44       	sbci	r23, 0x48	; 72
     304:	1c 18       	sub	r1, r12
     306:	00 00       	nop
     308:	48 5c       	subi	r20, 0xC8	; 200
     30a:	54 54       	subi	r21, 0x44	; 68
     30c:	74 24       	eor	r7, r4
     30e:	00 00       	nop
     310:	00 04       	cpc	r0, r0
     312:	3e 7f       	andi	r19, 0xFE	; 254
     314:	44 24       	eor	r4, r4
     316:	00 00       	nop
     318:	3c 7c       	andi	r19, 0xCC	; 204
     31a:	40 40       	sbci	r20, 0x00	; 0
     31c:	3c 7c       	andi	r19, 0xCC	; 204
     31e:	40 00       	.word	0x0040	; ????
     320:	1c 3c       	cpi	r17, 0xCC	; 204
     322:	60 60       	ori	r22, 0x00	; 0
     324:	3c 1c       	adc	r3, r12
     326:	00 00       	nop
     328:	3c 7c       	andi	r19, 0xCC	; 204
     32a:	60 30       	cpi	r22, 0x00	; 0
     32c:	60 7c       	andi	r22, 0xC0	; 192
     32e:	3c 00       	.word	0x003c	; ????
     330:	44 6c       	ori	r20, 0xC4	; 196
     332:	38 10       	cpse	r3, r8
     334:	38 6c       	ori	r19, 0xC8	; 200
     336:	44 00       	.word	0x0044	; ????
     338:	9c bc       	out	0x2c, r9	; 44
     33a:	a0 a0       	ldd	r10, Z+32	; 0x20
     33c:	fc 7c       	andi	r31, 0xCC	; 204
     33e:	00 00       	nop
     340:	4c 64       	ori	r20, 0x4C	; 76
     342:	74 5c       	subi	r23, 0xC4	; 196
     344:	4c 64       	ori	r20, 0x4C	; 76
     346:	00 00       	nop
     348:	08 08       	sbc	r0, r8
     34a:	3e 77       	andi	r19, 0x7E	; 126
     34c:	41 41       	sbci	r20, 0x11	; 17
     34e:	00 00       	nop
     350:	00 00       	nop
     352:	00 77       	andi	r16, 0x70	; 112
     354:	77 00       	.word	0x0077	; ????
     356:	00 00       	nop
     358:	41 41       	sbci	r20, 0x11	; 17
     35a:	77 3e       	cpi	r23, 0xE7	; 231
     35c:	08 08       	sbc	r0, r8
     35e:	00 00       	nop
     360:	02 03       	mulsu	r16, r18
     362:	01 03       	mulsu	r16, r17
     364:	02 03       	mulsu	r16, r18
     366:	01 00       	.word	0x0001	; ????

00000368 <__ctors_end>:
     368:	11 24       	eor	r1, r1
     36a:	1f be       	out	0x3f, r1	; 63
     36c:	cf ef       	ldi	r28, 0xFF	; 255
     36e:	d4 e0       	ldi	r29, 0x04	; 4
     370:	de bf       	out	0x3e, r29	; 62
     372:	cd bf       	out	0x3d, r28	; 61

00000374 <__do_copy_data>:
     374:	12 e0       	ldi	r17, 0x02	; 2
     376:	a0 e0       	ldi	r26, 0x00	; 0
     378:	b1 e0       	ldi	r27, 0x01	; 1
     37a:	e2 e0       	ldi	r30, 0x02	; 2
     37c:	f5 e2       	ldi	r31, 0x25	; 37
     37e:	02 c0       	rjmp	.+4      	; 0x384 <__do_copy_data+0x10>
     380:	05 90       	lpm	r0, Z+
     382:	0d 92       	st	X+, r0
     384:	a2 32       	cpi	r26, 0x22	; 34
     386:	b1 07       	cpc	r27, r17
     388:	d9 f7       	brne	.-10     	; 0x380 <__do_copy_data+0xc>

0000038a <__do_clear_bss>:
     38a:	22 e0       	ldi	r18, 0x02	; 2
     38c:	a2 e2       	ldi	r26, 0x22	; 34
     38e:	b2 e0       	ldi	r27, 0x02	; 2
     390:	01 c0       	rjmp	.+2      	; 0x394 <.do_clear_bss_start>

00000392 <.do_clear_bss_loop>:
     392:	1d 92       	st	X+, r1

00000394 <.do_clear_bss_start>:
     394:	ae 32       	cpi	r26, 0x2E	; 46
     396:	b2 07       	cpc	r27, r18
     398:	e1 f7       	brne	.-8      	; 0x392 <.do_clear_bss_loop>
     39a:	0e 94 24 0c 	call	0x1848	; 0x1848 <main>
     39e:	0c 94 7f 12 	jmp	0x24fe	; 0x24fe <_exit>

000003a2 <__bad_interrupt>:
     3a2:	0c 94 00 00 	jmp	0	; 0x0 <__vectors>

000003a6 <ADC_read_x>:
     3a6:	64 e0       	ldi	r22, 0x04	; 4
     3a8:	74 e0       	ldi	r23, 0x04	; 4
     3aa:	84 e0       	ldi	r24, 0x04	; 4
     3ac:	0e 94 20 0c 	call	0x1840	; 0x1840 <XMEM_write>
     3b0:	80 91 22 02 	lds	r24, 0x0222	; 0x800222 <__data_end>
     3b4:	90 91 23 02 	lds	r25, 0x0223	; 0x800223 <__data_end+0x1>
     3b8:	89 2b       	or	r24, r25
     3ba:	d1 f3       	breq	.-12     	; 0x3b0 <ADC_read_x+0xa>
     3bc:	10 92 23 02 	sts	0x0223, r1	; 0x800223 <__data_end+0x1>
     3c0:	10 92 22 02 	sts	0x0222, r1	; 0x800222 <__data_end>
     3c4:	80 e0       	ldi	r24, 0x00	; 0
     3c6:	94 e0       	ldi	r25, 0x04	; 4
     3c8:	0e 94 1c 0c 	call	0x1838	; 0x1838 <XMEM_read>
     3cc:	08 95       	ret

000003ce <ADC_read_y>:
     3ce:	65 e0       	ldi	r22, 0x05	; 5
     3d0:	74 e0       	ldi	r23, 0x04	; 4
     3d2:	85 e0       	ldi	r24, 0x05	; 5
     3d4:	0e 94 20 0c 	call	0x1840	; 0x1840 <XMEM_write>
     3d8:	80 91 22 02 	lds	r24, 0x0222	; 0x800222 <__data_end>
     3dc:	90 91 23 02 	lds	r25, 0x0223	; 0x800223 <__data_end+0x1>
     3e0:	89 2b       	or	r24, r25
     3e2:	d1 f3       	breq	.-12     	; 0x3d8 <ADC_read_y+0xa>
     3e4:	10 92 23 02 	sts	0x0223, r1	; 0x800223 <__data_end+0x1>
     3e8:	10 92 22 02 	sts	0x0222, r1	; 0x800222 <__data_end>
     3ec:	80 e0       	ldi	r24, 0x00	; 0
     3ee:	94 e0       	ldi	r25, 0x04	; 4
     3f0:	0e 94 1c 0c 	call	0x1838	; 0x1838 <XMEM_read>
     3f4:	08 95       	ret

000003f6 <ADC_slider_left>:
     3f6:	66 e0       	ldi	r22, 0x06	; 6
     3f8:	74 e0       	ldi	r23, 0x04	; 4
     3fa:	86 e0       	ldi	r24, 0x06	; 6
     3fc:	0e 94 20 0c 	call	0x1840	; 0x1840 <XMEM_write>
     400:	80 91 22 02 	lds	r24, 0x0222	; 0x800222 <__data_end>
     404:	90 91 23 02 	lds	r25, 0x0223	; 0x800223 <__data_end+0x1>
     408:	89 2b       	or	r24, r25
     40a:	d1 f3       	breq	.-12     	; 0x400 <__LOCK_REGION_LENGTH__>
     40c:	10 92 23 02 	sts	0x0223, r1	; 0x800223 <__data_end+0x1>
     410:	10 92 22 02 	sts	0x0222, r1	; 0x800222 <__data_end>
     414:	80 e0       	ldi	r24, 0x00	; 0
     416:	94 e0       	ldi	r25, 0x04	; 4
     418:	0e 94 1c 0c 	call	0x1838	; 0x1838 <XMEM_read>
     41c:	08 95       	ret

0000041e <ADC_slider_right>:
     41e:	67 e0       	ldi	r22, 0x07	; 7
     420:	74 e0       	ldi	r23, 0x04	; 4
     422:	87 e0       	ldi	r24, 0x07	; 7
     424:	0e 94 20 0c 	call	0x1840	; 0x1840 <XMEM_write>
     428:	80 91 22 02 	lds	r24, 0x0222	; 0x800222 <__data_end>
     42c:	90 91 23 02 	lds	r25, 0x0223	; 0x800223 <__data_end+0x1>
     430:	89 2b       	or	r24, r25
     432:	d1 f3       	breq	.-12     	; 0x428 <ADC_slider_right+0xa>
     434:	10 92 23 02 	sts	0x0223, r1	; 0x800223 <__data_end+0x1>
     438:	10 92 22 02 	sts	0x0222, r1	; 0x800222 <__data_end>
     43c:	80 e0       	ldi	r24, 0x00	; 0
     43e:	94 e0       	ldi	r25, 0x04	; 4
     440:	0e 94 1c 0c 	call	0x1838	; 0x1838 <XMEM_read>
     444:	08 95       	ret

00000446 <CAN_init>:
#include <stdlib.h>
#include <stddef.h>
#include "uart.h"


void CAN_init(uint8_t mode) {
     446:	cf 93       	push	r28
     448:	c8 2f       	mov	r28, r24
	MCP_init();
     44a:	0e 94 4e 04 	call	0x89c	; 0x89c <MCP_init>
	
	// Enable receive and transmit interrupts
	MCP_write(MCP_CANINTE, 0b00000101);
     44e:	65 e0       	ldi	r22, 0x05	; 5
     450:	8b e2       	ldi	r24, 0x2B	; 43
     452:	0e 94 61 04 	call	0x8c2	; 0x8c2 <MCP_write>

	MCP_bitModify(MCP_CANCTRL, MODE_MASK, mode);	//enter specified mode
     456:	4c 2f       	mov	r20, r28
     458:	60 ee       	ldi	r22, 0xE0	; 224
     45a:	8f e0       	ldi	r24, 0x0F	; 15
     45c:	0e 94 8c 04 	call	0x918	; 0x918 <MCP_bitModify>
	MCP_bitModify(MCP_RXB0CTRL, 0b01100000, 0b01100000); // Turn mask/filters off, recieve any message
     460:	40 e6       	ldi	r20, 0x60	; 96
     462:	60 e6       	ldi	r22, 0x60	; 96
     464:	80 e6       	ldi	r24, 0x60	; 96
     466:	0e 94 8c 04 	call	0x918	; 0x918 <MCP_bitModify>
	
	if (MCP_read(MCP_CANCTRL) & 0b01000000) {
     46a:	8f e0       	ldi	r24, 0x0F	; 15
     46c:	0e 94 53 04 	call	0x8a6	; 0x8a6 <MCP_read>
     470:	86 ff       	sbrs	r24, 6
     472:	08 c0       	rjmp	.+16     	; 0x484 <CAN_init+0x3e>
		printf("CAN controller in loopback mode\n\r");
     474:	86 e0       	ldi	r24, 0x06	; 6
     476:	91 e0       	ldi	r25, 0x01	; 1
     478:	9f 93       	push	r25
     47a:	8f 93       	push	r24
     47c:	0e 94 5d 0e 	call	0x1cba	; 0x1cba <printf>
     480:	0f 90       	pop	r0
     482:	0f 90       	pop	r0
	}
}
     484:	cf 91       	pop	r28
     486:	08 95       	ret

00000488 <CAN_message_send>:

void CAN_message_send(msg_ptr msgPtr) {
     488:	ef 92       	push	r14
     48a:	ff 92       	push	r15
     48c:	0f 93       	push	r16
     48e:	1f 93       	push	r17
     490:	cf 93       	push	r28
     492:	7c 01       	movw	r14, r24
	// Set TXB0SIDH (higher ID-register)
	MCP_write(MCP_TXB0CTRL + 1, (msgPtr->id));
     494:	fc 01       	movw	r30, r24
     496:	60 81       	ld	r22, Z
     498:	81 e3       	ldi	r24, 0x31	; 49
     49a:	0e 94 61 04 	call	0x8c2	; 0x8c2 <MCP_write>
	// Set TXB0SIDL (lower ID-register)
	MCP_write(MCP_TXB0CTRL + 2, (msgPtr->id) & 0xFF);
	printf("lower ID to be sent = %#X \n\r", (msgPtr->id) & 0xFF);
	*/
	// Set TXB0DLC (length register)
	MCP_write(MCP_TXB0CTRL + 5, (msgPtr->length));
     49e:	f7 01       	movw	r30, r14
     4a0:	61 81       	ldd	r22, Z+1	; 0x01
     4a2:	85 e3       	ldi	r24, 0x35	; 53
     4a4:	0e 94 61 04 	call	0x8c2	; 0x8c2 <MCP_write>
	
	int dataIterator = 0;
	for (uint8_t i = MCP_TXB0CTRL + 6; i <= MCP_TXB0CTRL + 6 + msgPtr->length; i++) {
     4a8:	f7 01       	movw	r30, r14
     4aa:	81 81       	ldd	r24, Z+1	; 0x01
     4ac:	90 e0       	ldi	r25, 0x00	; 0
     4ae:	c6 96       	adiw	r24, 0x36	; 54
     4b0:	c6 97       	sbiw	r24, 0x36	; 54
     4b2:	a4 f0       	brlt	.+40     	; 0x4dc <CAN_message_send+0x54>
     4b4:	87 01       	movw	r16, r14
     4b6:	0e 5f       	subi	r16, 0xFE	; 254
     4b8:	1f 4f       	sbci	r17, 0xFF	; 255
     4ba:	c6 e3       	ldi	r28, 0x36	; 54
		MCP_write(i, msgPtr->data[dataIterator]);
     4bc:	f8 01       	movw	r30, r16
     4be:	61 91       	ld	r22, Z+
     4c0:	8f 01       	movw	r16, r30
     4c2:	8c 2f       	mov	r24, r28
     4c4:	0e 94 61 04 	call	0x8c2	; 0x8c2 <MCP_write>
	*/
	// Set TXB0DLC (length register)
	MCP_write(MCP_TXB0CTRL + 5, (msgPtr->length));
	
	int dataIterator = 0;
	for (uint8_t i = MCP_TXB0CTRL + 6; i <= MCP_TXB0CTRL + 6 + msgPtr->length; i++) {
     4c8:	cf 5f       	subi	r28, 0xFF	; 255
     4ca:	2c 2f       	mov	r18, r28
     4cc:	30 e0       	ldi	r19, 0x00	; 0
     4ce:	f7 01       	movw	r30, r14
     4d0:	81 81       	ldd	r24, Z+1	; 0x01
     4d2:	90 e0       	ldi	r25, 0x00	; 0
     4d4:	c6 96       	adiw	r24, 0x36	; 54
     4d6:	82 17       	cp	r24, r18
     4d8:	93 07       	cpc	r25, r19
     4da:	84 f7       	brge	.-32     	; 0x4bc <CAN_message_send+0x34>
		MCP_write(i, msgPtr->data[dataIterator]);
		dataIterator++;
	}
	
	MCP_requestToSend(0);
     4dc:	80 e0       	ldi	r24, 0x00	; 0
     4de:	90 e0       	ldi	r25, 0x00	; 0
     4e0:	0e 94 73 04 	call	0x8e6	; 0x8e6 <MCP_requestToSend>
	
	// Transmission of CAN msg will start when the device detects that the bus is available...
}
     4e4:	cf 91       	pop	r28
     4e6:	1f 91       	pop	r17
     4e8:	0f 91       	pop	r16
     4ea:	ff 90       	pop	r15
     4ec:	ef 90       	pop	r14
     4ee:	08 95       	ret

000004f0 <CAN_message_recieve>:

msg_t CAN_message_recieve(void) {
     4f0:	7f 92       	push	r7
     4f2:	8f 92       	push	r8
     4f4:	9f 92       	push	r9
     4f6:	af 92       	push	r10
     4f8:	bf 92       	push	r11
     4fa:	cf 92       	push	r12
     4fc:	df 92       	push	r13
     4fe:	ef 92       	push	r14
     500:	ff 92       	push	r15
     502:	0f 93       	push	r16
     504:	1f 93       	push	r17
     506:	cf 93       	push	r28
     508:	df 93       	push	r29
     50a:	cd b7       	in	r28, 0x3d	; 61
     50c:	de b7       	in	r29, 0x3e	; 62
     50e:	2a 97       	sbiw	r28, 0x0a	; 10
     510:	0f b6       	in	r0, 0x3f	; 63
     512:	f8 94       	cli
     514:	de bf       	out	0x3e, r29	; 62
     516:	0f be       	out	0x3f, r0	; 63
     518:	cd bf       	out	0x3d, r28	; 61
     51a:	5c 01       	movw	r10, r24
	msg_t msg;
	
	// Read ID from RXB0SIDH and RXB0SIDL
	uint8_t upperId = MCP_read(MCP_RXB0CTRL + 1);
     51c:	81 e6       	ldi	r24, 0x61	; 97
     51e:	0e 94 53 04 	call	0x8a6	; 0x8a6 <MCP_read>
     522:	78 2e       	mov	r7, r24
	printf("recieved upper ID = %#X \n\r", upperId);
     524:	1f 92       	push	r1
     526:	8f 93       	push	r24
     528:	88 e2       	ldi	r24, 0x28	; 40
     52a:	91 e0       	ldi	r25, 0x01	; 1
     52c:	9f 93       	push	r25
     52e:	8f 93       	push	r24
     530:	0e 94 5d 0e 	call	0x1cba	; 0x1cba <printf>
	//printf("recieved lower ID = %#X \n\r", lowerId);
	//msg.id =  (upperId << 8) + lowerId;
	msg.id = upperId ;
	
	// Read length from RXB0DLC
	msg.length = MCP_read(MCP_RXB0CTRL + 5);
     534:	85 e6       	ldi	r24, 0x65	; 101
     536:	0e 94 53 04 	call	0x8a6	; 0x8a6 <MCP_read>
     53a:	08 2f       	mov	r16, r24
	
	// Read data
	int dataIterator = 0;
	for (uint8_t i = MCP_RXB0CTRL + 6; i <= MCP_RXB0CTRL + 6 + msg.length; i++) {
     53c:	c8 2e       	mov	r12, r24
     53e:	d1 2c       	mov	r13, r1
     540:	26 e6       	ldi	r18, 0x66	; 102
     542:	c2 0e       	add	r12, r18
     544:	d1 1c       	adc	r13, r1
     546:	0f 90       	pop	r0
     548:	0f 90       	pop	r0
     54a:	0f 90       	pop	r0
     54c:	0f 90       	pop	r0
     54e:	36 e6       	ldi	r19, 0x66	; 102
     550:	c3 16       	cp	r12, r19
     552:	d1 04       	cpc	r13, r1
     554:	cc f0       	brlt	.+50     	; 0x588 <__stack+0x89>
     556:	7e 01       	movw	r14, r28
     558:	83 e0       	ldi	r24, 0x03	; 3
     55a:	e8 0e       	add	r14, r24
     55c:	f1 1c       	adc	r15, r1
     55e:	16 e6       	ldi	r17, 0x66	; 102
     560:	ce 01       	movw	r24, r28
     562:	80 95       	com	r24
     564:	90 95       	com	r25
     566:	fc 01       	movw	r30, r24
     568:	ec 59       	subi	r30, 0x9C	; 156
     56a:	ff 4f       	sbci	r31, 0xFF	; 255
     56c:	4f 01       	movw	r8, r30
		msg.data[dataIterator] = MCP_read(i);
     56e:	81 2f       	mov	r24, r17
     570:	0e 94 53 04 	call	0x8a6	; 0x8a6 <MCP_read>
     574:	f7 01       	movw	r30, r14
     576:	81 93       	st	Z+, r24
     578:	7f 01       	movw	r14, r30
	// Read length from RXB0DLC
	msg.length = MCP_read(MCP_RXB0CTRL + 5);
	
	// Read data
	int dataIterator = 0;
	for (uint8_t i = MCP_RXB0CTRL + 6; i <= MCP_RXB0CTRL + 6 + msg.length; i++) {
     57a:	1f 5f       	subi	r17, 0xFF	; 255
     57c:	c4 01       	movw	r24, r8
     57e:	8e 0f       	add	r24, r30
     580:	9f 1f       	adc	r25, r31
     582:	c8 16       	cp	r12, r24
     584:	d9 06       	cpc	r13, r25
     586:	9c f7       	brge	.-26     	; 0x56e <__stack+0x6f>
		msg.data[dataIterator] = MCP_read(i);
		dataIterator++;
	}
	return msg;
     588:	79 82       	std	Y+1, r7	; 0x01
     58a:	0a 83       	std	Y+2, r16	; 0x02
     58c:	8a e0       	ldi	r24, 0x0A	; 10
     58e:	fe 01       	movw	r30, r28
     590:	31 96       	adiw	r30, 0x01	; 1
     592:	d5 01       	movw	r26, r10
     594:	01 90       	ld	r0, Z+
     596:	0d 92       	st	X+, r0
     598:	8a 95       	dec	r24
     59a:	e1 f7       	brne	.-8      	; 0x594 <__stack+0x95>
} 
     59c:	c5 01       	movw	r24, r10
     59e:	2a 96       	adiw	r28, 0x0a	; 10
     5a0:	0f b6       	in	r0, 0x3f	; 63
     5a2:	f8 94       	cli
     5a4:	de bf       	out	0x3e, r29	; 62
     5a6:	0f be       	out	0x3f, r0	; 63
     5a8:	cd bf       	out	0x3d, r28	; 61
     5aa:	df 91       	pop	r29
     5ac:	cf 91       	pop	r28
     5ae:	1f 91       	pop	r17
     5b0:	0f 91       	pop	r16
     5b2:	ff 90       	pop	r15
     5b4:	ef 90       	pop	r14
     5b6:	df 90       	pop	r13
     5b8:	cf 90       	pop	r12
     5ba:	bf 90       	pop	r11
     5bc:	af 90       	pop	r10
     5be:	9f 90       	pop	r9
     5c0:	8f 90       	pop	r8
     5c2:	7f 90       	pop	r7
     5c4:	08 95       	ret

000005c6 <joystick_pos>:
	msg.length = 1;
	msg_ptr msgPtr = &msg;
	uint8_t joystickDirection = joystick_dir();
	msg.data[0] = joystickDirection;
	CAN_message_send(msgPtr);
}
     5c6:	cf 93       	push	r28
     5c8:	0e 94 d3 01 	call	0x3a6	; 0x3a6 <ADC_read_x>
     5cc:	c8 2f       	mov	r28, r24
     5ce:	0e 94 e7 01 	call	0x3ce	; 0x3ce <ADC_read_y>
     5d2:	94 e6       	ldi	r25, 0x64	; 100
     5d4:	c9 9f       	mul	r28, r25
     5d6:	90 01       	movw	r18, r0
     5d8:	11 24       	eor	r1, r1
     5da:	22 0f       	add	r18, r18
     5dc:	23 2f       	mov	r18, r19
     5de:	22 1f       	adc	r18, r18
     5e0:	33 0b       	sbc	r19, r19
     5e2:	24 56       	subi	r18, 0x64	; 100
     5e4:	94 e6       	ldi	r25, 0x64	; 100
     5e6:	89 9f       	mul	r24, r25
     5e8:	a0 01       	movw	r20, r0
     5ea:	11 24       	eor	r1, r1
     5ec:	44 0f       	add	r20, r20
     5ee:	45 2f       	mov	r20, r21
     5f0:	44 1f       	adc	r20, r20
     5f2:	55 0b       	sbc	r21, r21
     5f4:	82 2f       	mov	r24, r18
     5f6:	9c e9       	ldi	r25, 0x9C	; 156
     5f8:	94 0f       	add	r25, r20
     5fa:	cf 91       	pop	r28
     5fc:	08 95       	ret

000005fe <joystick_dir>:
     5fe:	0e 94 e3 02 	call	0x5c6	; 0x5c6 <joystick_pos>
     602:	49 2f       	mov	r20, r25
     604:	87 3f       	cpi	r24, 0xF7	; 247
     606:	54 f4       	brge	.+20     	; 0x61c <joystick_dir+0x1e>
     608:	88 02       	muls	r24, r24
     60a:	90 01       	movw	r18, r0
     60c:	11 24       	eor	r1, r1
     60e:	99 02       	muls	r25, r25
     610:	b0 01       	movw	r22, r0
     612:	11 24       	eor	r1, r1
     614:	62 17       	cp	r22, r18
     616:	73 07       	cpc	r23, r19
     618:	64 f4       	brge	.+24     	; 0x632 <joystick_dir+0x34>
     61a:	25 c0       	rjmp	.+74     	; 0x666 <joystick_dir+0x68>
     61c:	8a 30       	cpi	r24, 0x0A	; 10
     61e:	4c f0       	brlt	.+18     	; 0x632 <joystick_dir+0x34>
     620:	88 02       	muls	r24, r24
     622:	90 01       	movw	r18, r0
     624:	11 24       	eor	r1, r1
     626:	99 02       	muls	r25, r25
     628:	b0 01       	movw	r22, r0
     62a:	11 24       	eor	r1, r1
     62c:	62 17       	cp	r22, r18
     62e:	73 07       	cpc	r23, r19
     630:	e4 f0       	brlt	.+56     	; 0x66a <joystick_dir+0x6c>
     632:	47 3f       	cpi	r20, 0xF7	; 247
     634:	5c f4       	brge	.+22     	; 0x64c <joystick_dir+0x4e>
     636:	88 02       	muls	r24, r24
     638:	a0 01       	movw	r20, r0
     63a:	11 24       	eor	r1, r1
     63c:	99 02       	muls	r25, r25
     63e:	90 01       	movw	r18, r0
     640:	11 24       	eor	r1, r1
     642:	42 17       	cp	r20, r18
     644:	53 07       	cpc	r21, r19
     646:	9c f4       	brge	.+38     	; 0x66e <joystick_dir+0x70>
     648:	83 e0       	ldi	r24, 0x03	; 3
     64a:	08 95       	ret
     64c:	4a 30       	cpi	r20, 0x0A	; 10
     64e:	8c f0       	brlt	.+34     	; 0x672 <joystick_dir+0x74>
     650:	88 02       	muls	r24, r24
     652:	a0 01       	movw	r20, r0
     654:	11 24       	eor	r1, r1
     656:	99 02       	muls	r25, r25
     658:	90 01       	movw	r18, r0
     65a:	11 24       	eor	r1, r1
     65c:	42 17       	cp	r20, r18
     65e:	53 07       	cpc	r21, r19
     660:	54 f4       	brge	.+20     	; 0x676 <joystick_dir+0x78>
     662:	82 e0       	ldi	r24, 0x02	; 2
     664:	08 95       	ret
     666:	80 e0       	ldi	r24, 0x00	; 0
     668:	08 95       	ret
     66a:	81 e0       	ldi	r24, 0x01	; 1
     66c:	08 95       	ret
     66e:	84 e0       	ldi	r24, 0x04	; 4
     670:	08 95       	ret
     672:	84 e0       	ldi	r24, 0x04	; 4
     674:	08 95       	ret
     676:	84 e0       	ldi	r24, 0x04	; 4
     678:	08 95       	ret

0000067a <send_joystick_pos>:

void send_joystick_pos(void) {
     67a:	cf 93       	push	r28
     67c:	df 93       	push	r29
     67e:	cd b7       	in	r28, 0x3d	; 61
     680:	de b7       	in	r29, 0x3e	; 62
     682:	2a 97       	sbiw	r28, 0x0a	; 10
     684:	0f b6       	in	r0, 0x3f	; 63
     686:	f8 94       	cli
     688:	de bf       	out	0x3e, r29	; 62
     68a:	0f be       	out	0x3f, r0	; 63
     68c:	cd bf       	out	0x3d, r28	; 61
	msg_t msg;
	msg.id = 0x02;
     68e:	82 e0       	ldi	r24, 0x02	; 2
     690:	89 83       	std	Y+1, r24	; 0x01
	msg.length = 2;
     692:	8a 83       	std	Y+2, r24	; 0x02
	msg_ptr msgPtr = &msg;
	pos_t pos = joystick_pos();
     694:	0e 94 e3 02 	call	0x5c6	; 0x5c6 <joystick_pos>
	uint8_t stdPosX = ((pos.x + 101) / 4) * 2; // Senker oppløsning for å unngå dirring ved å bruke heltalldivisjon
	uint8_t stdPosY = ((pos.y + 101) / 4) * 2;
     698:	49 2f       	mov	r20, r25
     69a:	99 0f       	add	r25, r25
     69c:	55 0b       	sbc	r21, r21
     69e:	4b 59       	subi	r20, 0x9B	; 155
     6a0:	5f 4f       	sbci	r21, 0xFF	; 255
     6a2:	9a 01       	movw	r18, r20
     6a4:	12 f4       	brpl	.+4      	; 0x6aa <send_joystick_pos+0x30>
     6a6:	2d 5f       	subi	r18, 0xFD	; 253
     6a8:	3f 4f       	sbci	r19, 0xFF	; 255
     6aa:	35 95       	asr	r19
     6ac:	27 95       	ror	r18
     6ae:	35 95       	asr	r19
     6b0:	27 95       	ror	r18
     6b2:	22 0f       	add	r18, r18
	msg.data[0] = stdPosX;
     6b4:	08 2e       	mov	r0, r24
     6b6:	00 0c       	add	r0, r0
     6b8:	99 0b       	sbc	r25, r25
     6ba:	8b 59       	subi	r24, 0x9B	; 155
     6bc:	9f 4f       	sbci	r25, 0xFF	; 255
     6be:	ac 01       	movw	r20, r24
     6c0:	12 f4       	brpl	.+4      	; 0x6c6 <send_joystick_pos+0x4c>
     6c2:	4d 5f       	subi	r20, 0xFD	; 253
     6c4:	5f 4f       	sbci	r21, 0xFF	; 255
     6c6:	55 95       	asr	r21
     6c8:	47 95       	ror	r20
     6ca:	55 95       	asr	r21
     6cc:	47 95       	ror	r20
     6ce:	44 0f       	add	r20, r20
     6d0:	4b 83       	std	Y+3, r20	; 0x03
	msg.data[1] = stdPosY;
     6d2:	2c 83       	std	Y+4, r18	; 0x04
	CAN_message_send(msgPtr);
     6d4:	ce 01       	movw	r24, r28
     6d6:	01 96       	adiw	r24, 0x01	; 1
     6d8:	0e 94 44 02 	call	0x488	; 0x488 <CAN_message_send>
}
     6dc:	2a 96       	adiw	r28, 0x0a	; 10
     6de:	0f b6       	in	r0, 0x3f	; 63
     6e0:	f8 94       	cli
     6e2:	de bf       	out	0x3e, r29	; 62
     6e4:	0f be       	out	0x3f, r0	; 63
     6e6:	cd bf       	out	0x3d, r28	; 61
     6e8:	df 91       	pop	r29
     6ea:	cf 91       	pop	r28
     6ec:	08 95       	ret

000006ee <INTERRUPT_init>:
volatile int ADC_INTERRUPT_READY = 0;


void INTERRUPT_init() {
	// disable global interrupts (set SREG register)
	cli();
     6ee:	f8 94       	cli
	
	// Enable that a falling edge generates an interrupt request for INT0
	MCUCR |= (1 << ISC01);
     6f0:	85 b7       	in	r24, 0x35	; 53
     6f2:	82 60       	ori	r24, 0x02	; 2
     6f4:	85 bf       	out	0x35, r24	; 53
	MCUCR &= ~(1 << ISC00);
     6f6:	85 b7       	in	r24, 0x35	; 53
     6f8:	8e 7f       	andi	r24, 0xFE	; 254
     6fa:	85 bf       	out	0x35, r24	; 53
	
	
	// Enable that a falling edge generates an interrupt request for INT1
	MCUCR |= (1 << ISC11);
     6fc:	85 b7       	in	r24, 0x35	; 53
     6fe:	88 60       	ori	r24, 0x08	; 8
     700:	85 bf       	out	0x35, r24	; 53
	MCUCR &= ~(1 << ISC10);	
     702:	85 b7       	in	r24, 0x35	; 53
     704:	8b 7f       	andi	r24, 0xFB	; 251
     706:	85 bf       	out	0x35, r24	; 53

	
	// Enable interrupt on INT0 (from ADC) and INT1 (from MCP)
	GICR |= (1 << INT0);
     708:	8b b7       	in	r24, 0x3b	; 59
     70a:	80 64       	ori	r24, 0x40	; 64
     70c:	8b bf       	out	0x3b, r24	; 59
	GICR |= (1 << INT1); 
     70e:	8b b7       	in	r24, 0x3b	; 59
     710:	80 68       	ori	r24, 0x80	; 128
     712:	8b bf       	out	0x3b, r24	; 59
		
	// Setup for timer interrupt
	OCR0 = 100;
     714:	84 e6       	ldi	r24, 0x64	; 100
     716:	81 bf       	out	0x31, r24	; 49
	//TIMSK |= (1 << OCIE0);	OBS RENABLE DENNE
		
		
	// Enable global interrupts (set SREG register)
	sei();
     718:	78 94       	sei
     71a:	08 95       	ret

0000071c <__vector_1>:
}

// Interrupt for ADC
ISR(INT0_vect) {
     71c:	1f 92       	push	r1
     71e:	0f 92       	push	r0
     720:	0f b6       	in	r0, 0x3f	; 63
     722:	0f 92       	push	r0
     724:	11 24       	eor	r1, r1
     726:	8f 93       	push	r24
     728:	9f 93       	push	r25
	// Disable global interrupts while executing an ISR (?)
	//cli();
	ADC_INTERRUPT_READY = 1;
     72a:	81 e0       	ldi	r24, 0x01	; 1
     72c:	90 e0       	ldi	r25, 0x00	; 0
     72e:	90 93 23 02 	sts	0x0223, r25	; 0x800223 <__data_end+0x1>
     732:	80 93 22 02 	sts	0x0222, r24	; 0x800222 <__data_end>
	// Reset interrupt flag
	//GIFR &= ~(1 << INTF0);
	//GIFR |= (1 << INTF0);
	//printf("routine finished\n\r");
	//sei();
}
     736:	9f 91       	pop	r25
     738:	8f 91       	pop	r24
     73a:	0f 90       	pop	r0
     73c:	0f be       	out	0x3f, r0	; 63
     73e:	0f 90       	pop	r0
     740:	1f 90       	pop	r1
     742:	18 95       	reti

00000744 <__vector_2>:

// CAN interrupts
ISR(INT1_vect) {
     744:	1f 92       	push	r1
     746:	0f 92       	push	r0
     748:	0f b6       	in	r0, 0x3f	; 63
     74a:	0f 92       	push	r0
     74c:	11 24       	eor	r1, r1
     74e:	2f 93       	push	r18
     750:	3f 93       	push	r19
     752:	4f 93       	push	r20
     754:	5f 93       	push	r21
     756:	6f 93       	push	r22
     758:	7f 93       	push	r23
     75a:	8f 93       	push	r24
     75c:	9f 93       	push	r25
     75e:	af 93       	push	r26
     760:	bf 93       	push	r27
     762:	ef 93       	push	r30
     764:	ff 93       	push	r31
     766:	cf 93       	push	r28
     768:	df 93       	push	r29
     76a:	cd b7       	in	r28, 0x3d	; 61
     76c:	de b7       	in	r29, 0x3e	; 62
     76e:	2a 97       	sbiw	r28, 0x0a	; 10
     770:	de bf       	out	0x3e, r29	; 62
     772:	cd bf       	out	0x3d, r28	; 61
	if (MCP_read(MCP_CANINTF) & MCP_TX0IF) {
     774:	8c e2       	ldi	r24, 0x2C	; 44
     776:	0e 94 53 04 	call	0x8a6	; 0x8a6 <MCP_read>
     77a:	82 ff       	sbrs	r24, 2
     77c:	05 c0       	rjmp	.+10     	; 0x788 <__vector_2+0x44>
		//printf("Message sendt succesfully\n\r");
		
		// Reset transmit flag
		MCP_bitModify(MCP_CANINTF, MCP_TX0IF, 0);
     77e:	40 e0       	ldi	r20, 0x00	; 0
     780:	64 e0       	ldi	r22, 0x04	; 4
     782:	8c e2       	ldi	r24, 0x2C	; 44
     784:	0e 94 8c 04 	call	0x918	; 0x918 <MCP_bitModify>
	}
	// Message recieved at recieve buffer 0
	if (MCP_read(MCP_CANINTF) & MCP_RX0IF) {
     788:	8c e2       	ldi	r24, 0x2C	; 44
     78a:	0e 94 53 04 	call	0x8a6	; 0x8a6 <MCP_read>
     78e:	80 ff       	sbrs	r24, 0
     790:	2f c0       	rjmp	.+94     	; 0x7f0 <__vector_2+0xac>
		struct CAN_message msg = CAN_message_recieve();
     792:	ce 01       	movw	r24, r28
     794:	01 96       	adiw	r24, 0x01	; 1
     796:	0e 94 78 02 	call	0x4f0	; 0x4f0 <CAN_message_recieve>
		printf("--- Message recieved ---\n\r");
     79a:	83 e4       	ldi	r24, 0x43	; 67
     79c:	91 e0       	ldi	r25, 0x01	; 1
     79e:	9f 93       	push	r25
     7a0:	8f 93       	push	r24
     7a2:	0e 94 5d 0e 	call	0x1cba	; 0x1cba <printf>
		printf("ID: %#X \n\r", msg.id);
     7a6:	89 81       	ldd	r24, Y+1	; 0x01
     7a8:	1f 92       	push	r1
     7aa:	8f 93       	push	r24
     7ac:	8e e5       	ldi	r24, 0x5E	; 94
     7ae:	91 e0       	ldi	r25, 0x01	; 1
     7b0:	9f 93       	push	r25
     7b2:	8f 93       	push	r24
     7b4:	0e 94 5d 0e 	call	0x1cba	; 0x1cba <printf>
		printf("Length: %d \n\r", msg.length);
     7b8:	8a 81       	ldd	r24, Y+2	; 0x02
     7ba:	1f 92       	push	r1
     7bc:	8f 93       	push	r24
     7be:	89 e6       	ldi	r24, 0x69	; 105
     7c0:	91 e0       	ldi	r25, 0x01	; 1
     7c2:	9f 93       	push	r25
     7c4:	8f 93       	push	r24
     7c6:	0e 94 5d 0e 	call	0x1cba	; 0x1cba <printf>
		printf("Data[0] = %#X \n\r", msg.data[0]);
     7ca:	8b 81       	ldd	r24, Y+3	; 0x03
     7cc:	1f 92       	push	r1
     7ce:	8f 93       	push	r24
     7d0:	87 e7       	ldi	r24, 0x77	; 119
     7d2:	91 e0       	ldi	r25, 0x01	; 1
     7d4:	9f 93       	push	r25
     7d6:	8f 93       	push	r24
     7d8:	0e 94 5d 0e 	call	0x1cba	; 0x1cba <printf>
	
		// Reset receive flag
		MCP_bitModify(MCP_CANINTF, MCP_RX0IF, 0);
     7dc:	40 e0       	ldi	r20, 0x00	; 0
     7de:	61 e0       	ldi	r22, 0x01	; 1
     7e0:	8c e2       	ldi	r24, 0x2C	; 44
     7e2:	0e 94 8c 04 	call	0x918	; 0x918 <MCP_bitModify>
     7e6:	0f b6       	in	r0, 0x3f	; 63
     7e8:	f8 94       	cli
     7ea:	de bf       	out	0x3e, r29	; 62
     7ec:	0f be       	out	0x3f, r0	; 63
     7ee:	cd bf       	out	0x3d, r28	; 61
	}
	if (MCP_read(MCP_CANINTF) & MCP_MERRF) {
     7f0:	8c e2       	ldi	r24, 0x2C	; 44
     7f2:	0e 94 53 04 	call	0x8a6	; 0x8a6 <MCP_read>
     7f6:	88 23       	and	r24, r24
     7f8:	6c f4       	brge	.+26     	; 0x814 <__vector_2+0xd0>
		printf("CAN BUS ERROR!");
     7fa:	88 e8       	ldi	r24, 0x88	; 136
     7fc:	91 e0       	ldi	r25, 0x01	; 1
     7fe:	9f 93       	push	r25
     800:	8f 93       	push	r24
     802:	0e 94 5d 0e 	call	0x1cba	; 0x1cba <printf>
		MCP_bitModify(MCP_CANINTF, MCP_MERRF, 0);
     806:	40 e0       	ldi	r20, 0x00	; 0
     808:	60 e8       	ldi	r22, 0x80	; 128
     80a:	8c e2       	ldi	r24, 0x2C	; 44
     80c:	0e 94 8c 04 	call	0x918	; 0x918 <MCP_bitModify>
     810:	0f 90       	pop	r0
     812:	0f 90       	pop	r0
	}
}
     814:	2a 96       	adiw	r28, 0x0a	; 10
     816:	0f b6       	in	r0, 0x3f	; 63
     818:	f8 94       	cli
     81a:	de bf       	out	0x3e, r29	; 62
     81c:	0f be       	out	0x3f, r0	; 63
     81e:	cd bf       	out	0x3d, r28	; 61
     820:	df 91       	pop	r29
     822:	cf 91       	pop	r28
     824:	ff 91       	pop	r31
     826:	ef 91       	pop	r30
     828:	bf 91       	pop	r27
     82a:	af 91       	pop	r26
     82c:	9f 91       	pop	r25
     82e:	8f 91       	pop	r24
     830:	7f 91       	pop	r23
     832:	6f 91       	pop	r22
     834:	5f 91       	pop	r21
     836:	4f 91       	pop	r20
     838:	3f 91       	pop	r19
     83a:	2f 91       	pop	r18
     83c:	0f 90       	pop	r0
     83e:	0f be       	out	0x3f, r0	; 63
     840:	0f 90       	pop	r0
     842:	1f 90       	pop	r1
     844:	18 95       	reti

00000846 <__vector_16>:

ISR(TIMER0_COMP_vect) {
     846:	1f 92       	push	r1
     848:	0f 92       	push	r0
     84a:	0f b6       	in	r0, 0x3f	; 63
     84c:	0f 92       	push	r0
     84e:	11 24       	eor	r1, r1
     850:	2f 93       	push	r18
     852:	3f 93       	push	r19
     854:	4f 93       	push	r20
     856:	5f 93       	push	r21
     858:	6f 93       	push	r22
     85a:	7f 93       	push	r23
     85c:	8f 93       	push	r24
     85e:	9f 93       	push	r25
     860:	af 93       	push	r26
     862:	bf 93       	push	r27
     864:	ef 93       	push	r30
     866:	ff 93       	push	r31
	sei();
     868:	78 94       	sei

	send_joystick_pos();
     86a:	0e 94 3d 03 	call	0x67a	; 0x67a <send_joystick_pos>
	// Timer is reset automatically
     86e:	ff 91       	pop	r31
     870:	ef 91       	pop	r30
     872:	bf 91       	pop	r27
     874:	af 91       	pop	r26
     876:	9f 91       	pop	r25
     878:	8f 91       	pop	r24
     87a:	7f 91       	pop	r23
     87c:	6f 91       	pop	r22
     87e:	5f 91       	pop	r21
     880:	4f 91       	pop	r20
     882:	3f 91       	pop	r19
     884:	2f 91       	pop	r18
     886:	0f 90       	pop	r0
     888:	0f be       	out	0x3f, r0	; 63
     88a:	0f 90       	pop	r0
     88c:	1f 90       	pop	r1
     88e:	18 95       	reti

00000890 <MCP_reset>:
     890:	c4 98       	cbi	0x18, 4	; 24
     892:	80 ec       	ldi	r24, 0xC0	; 192
     894:	0e 94 d3 0b 	call	0x17a6	; 0x17a6 <SPI_transmit>
     898:	c4 9a       	sbi	0x18, 4	; 24
     89a:	08 95       	ret

0000089c <MCP_init>:
     89c:	0e 94 c6 0b 	call	0x178c	; 0x178c <SPI_MasterInit>
     8a0:	0e 94 48 04 	call	0x890	; 0x890 <MCP_reset>
     8a4:	08 95       	ret

000008a6 <MCP_read>:
     8a6:	cf 93       	push	r28
     8a8:	c8 2f       	mov	r28, r24
     8aa:	c4 98       	cbi	0x18, 4	; 24
     8ac:	83 e0       	ldi	r24, 0x03	; 3
     8ae:	0e 94 d3 0b 	call	0x17a6	; 0x17a6 <SPI_transmit>
     8b2:	8c 2f       	mov	r24, r28
     8b4:	0e 94 d3 0b 	call	0x17a6	; 0x17a6 <SPI_transmit>
     8b8:	0e 94 d7 0b 	call	0x17ae	; 0x17ae <SPI_read>
     8bc:	c4 9a       	sbi	0x18, 4	; 24
     8be:	cf 91       	pop	r28
     8c0:	08 95       	ret

000008c2 <MCP_write>:
     8c2:	cf 93       	push	r28
     8c4:	df 93       	push	r29
     8c6:	d8 2f       	mov	r29, r24
     8c8:	c6 2f       	mov	r28, r22
     8ca:	c4 98       	cbi	0x18, 4	; 24
     8cc:	82 e0       	ldi	r24, 0x02	; 2
     8ce:	0e 94 d3 0b 	call	0x17a6	; 0x17a6 <SPI_transmit>
     8d2:	8d 2f       	mov	r24, r29
     8d4:	0e 94 d3 0b 	call	0x17a6	; 0x17a6 <SPI_transmit>
     8d8:	8c 2f       	mov	r24, r28
     8da:	0e 94 d3 0b 	call	0x17a6	; 0x17a6 <SPI_transmit>
     8de:	c4 9a       	sbi	0x18, 4	; 24
     8e0:	df 91       	pop	r29
     8e2:	cf 91       	pop	r28
     8e4:	08 95       	ret

000008e6 <MCP_requestToSend>:
     8e6:	c4 98       	cbi	0x18, 4	; 24
     8e8:	00 97       	sbiw	r24, 0x00	; 0
     8ea:	21 f4       	brne	.+8      	; 0x8f4 <MCP_requestToSend+0xe>
     8ec:	81 e8       	ldi	r24, 0x81	; 129
     8ee:	0e 94 d3 0b 	call	0x17a6	; 0x17a6 <SPI_transmit>
     8f2:	10 c0       	rjmp	.+32     	; 0x914 <MCP_requestToSend+0x2e>
     8f4:	81 30       	cpi	r24, 0x01	; 1
     8f6:	91 05       	cpc	r25, r1
     8f8:	21 f4       	brne	.+8      	; 0x902 <MCP_requestToSend+0x1c>
     8fa:	82 e8       	ldi	r24, 0x82	; 130
     8fc:	0e 94 d3 0b 	call	0x17a6	; 0x17a6 <SPI_transmit>
     900:	09 c0       	rjmp	.+18     	; 0x914 <MCP_requestToSend+0x2e>
     902:	02 97       	sbiw	r24, 0x02	; 2
     904:	21 f4       	brne	.+8      	; 0x90e <MCP_requestToSend+0x28>
     906:	84 e8       	ldi	r24, 0x84	; 132
     908:	0e 94 d3 0b 	call	0x17a6	; 0x17a6 <SPI_transmit>
     90c:	03 c0       	rjmp	.+6      	; 0x914 <MCP_requestToSend+0x2e>
     90e:	87 e8       	ldi	r24, 0x87	; 135
     910:	0e 94 d3 0b 	call	0x17a6	; 0x17a6 <SPI_transmit>
     914:	c4 9a       	sbi	0x18, 4	; 24
     916:	08 95       	ret

00000918 <MCP_bitModify>:
     918:	1f 93       	push	r17
     91a:	cf 93       	push	r28
     91c:	df 93       	push	r29
     91e:	18 2f       	mov	r17, r24
     920:	d6 2f       	mov	r29, r22
     922:	c4 2f       	mov	r28, r20
     924:	c4 98       	cbi	0x18, 4	; 24
     926:	85 e0       	ldi	r24, 0x05	; 5
     928:	0e 94 d3 0b 	call	0x17a6	; 0x17a6 <SPI_transmit>
     92c:	81 2f       	mov	r24, r17
     92e:	0e 94 d3 0b 	call	0x17a6	; 0x17a6 <SPI_transmit>
     932:	8d 2f       	mov	r24, r29
     934:	0e 94 d3 0b 	call	0x17a6	; 0x17a6 <SPI_transmit>
     938:	8c 2f       	mov	r24, r28
     93a:	0e 94 d3 0b 	call	0x17a6	; 0x17a6 <SPI_transmit>
     93e:	c4 9a       	sbi	0x18, 4	; 24
     940:	df 91       	pop	r29
     942:	cf 91       	pop	r28
     944:	1f 91       	pop	r17
     946:	08 95       	ret

00000948 <MENU_veryFunInvertingFunction>:
	int x_vel = 3;
	int y_vel = 2;
	while (1) {
		x += x_vel;
		y += y_vel;
		if (x <= 0 || x >= 127) {
     948:	0e 94 72 07 	call	0xee4	; 0xee4 <OLED_clearAll>
     94c:	0e 94 3e 07 	call	0xe7c	; 0xe7c <OLED_refresh>
     950:	0e 94 ff 02 	call	0x5fe	; 0x5fe <joystick_dir>
     954:	83 30       	cpi	r24, 0x03	; 3
     956:	39 f4       	brne	.+14     	; 0x966 <MENU_veryFunInvertingFunction+0x1e>
     958:	67 ea       	ldi	r22, 0xA7	; 167
     95a:	70 e0       	ldi	r23, 0x00	; 0
     95c:	87 ea       	ldi	r24, 0xA7	; 167
     95e:	90 e0       	ldi	r25, 0x00	; 0
     960:	0e 94 20 0c 	call	0x1840	; 0x1840 <XMEM_write>
     964:	f5 cf       	rjmp	.-22     	; 0x950 <MENU_veryFunInvertingFunction+0x8>
     966:	66 ea       	ldi	r22, 0xA6	; 166
     968:	70 e0       	ldi	r23, 0x00	; 0
     96a:	86 ea       	ldi	r24, 0xA6	; 166
     96c:	90 e0       	ldi	r25, 0x00	; 0
     96e:	0e 94 20 0c 	call	0x1840	; 0x1840 <XMEM_write>
     972:	ee cf       	rjmp	.-36     	; 0x950 <MENU_veryFunInvertingFunction+0x8>

00000974 <MENU_playGame>:
     974:	0e 94 72 07 	call	0xee4	; 0xee4 <OLED_clearAll>
     978:	60 e8       	ldi	r22, 0x80	; 128
     97a:	71 e0       	ldi	r23, 0x01	; 1
     97c:	87 e9       	ldi	r24, 0x97	; 151
     97e:	91 e0       	ldi	r25, 0x01	; 1
     980:	0e 94 b0 06 	call	0xd60	; 0xd60 <OLED_print_string>
     984:	0e 94 3e 07 	call	0xe7c	; 0xe7c <OLED_refresh>
     988:	0e 94 3d 03 	call	0x67a	; 0x67a <send_joystick_pos>
     98c:	0e 94 e9 0b 	call	0x17d2	; 0x17d2 <TIM8_ReadTCNT0>
     990:	88 3c       	cpi	r24, 0xC8	; 200
     992:	91 05       	cpc	r25, r1
     994:	d8 f3       	brcs	.-10     	; 0x98c <MENU_playGame+0x18>
     996:	f8 cf       	rjmp	.-16     	; 0x988 <MENU_playGame+0x14>

00000998 <MENU_print_children>:
     998:	cf 92       	push	r12
     99a:	df 92       	push	r13
     99c:	ef 92       	push	r14
     99e:	ff 92       	push	r15
     9a0:	0f 93       	push	r16
     9a2:	1f 93       	push	r17
     9a4:	cf 93       	push	r28
     9a6:	df 93       	push	r29
     9a8:	dc 01       	movw	r26, r24
     9aa:	12 96       	adiw	r26, 0x02	; 2
     9ac:	2d 91       	ld	r18, X+
     9ae:	3c 91       	ld	r19, X
     9b0:	13 97       	sbiw	r26, 0x03	; 3
     9b2:	12 16       	cp	r1, r18
     9b4:	13 06       	cpc	r1, r19
     9b6:	a4 f5       	brge	.+104    	; 0xa20 <MENU_print_children+0x88>
     9b8:	6c 01       	movw	r12, r24
     9ba:	7c 01       	movw	r14, r24
     9bc:	00 e0       	ldi	r16, 0x00	; 0
     9be:	10 e0       	ldi	r17, 0x00	; 0
     9c0:	c0 e0       	ldi	r28, 0x00	; 0
     9c2:	d0 e0       	ldi	r29, 0x00	; 0
     9c4:	f6 01       	movw	r30, r12
     9c6:	86 89       	ldd	r24, Z+22	; 0x16
     9c8:	97 89       	ldd	r25, Z+23	; 0x17
     9ca:	8c 17       	cp	r24, r28
     9cc:	9d 07       	cpc	r25, r29
     9ce:	91 f4       	brne	.+36     	; 0x9f4 <MENU_print_children+0x5c>
     9d0:	b8 01       	movw	r22, r16
     9d2:	84 ea       	ldi	r24, 0xA4	; 164
     9d4:	91 e0       	ldi	r25, 0x01	; 1
     9d6:	0e 94 b0 06 	call	0xd60	; 0xd60 <OLED_print_string>
     9da:	d7 01       	movw	r26, r14
     9dc:	14 96       	adiw	r26, 0x04	; 4
     9de:	ed 91       	ld	r30, X+
     9e0:	fc 91       	ld	r31, X
     9e2:	15 97       	sbiw	r26, 0x05	; 5
     9e4:	b8 01       	movw	r22, r16
     9e6:	68 5f       	subi	r22, 0xF8	; 248
     9e8:	7f 4f       	sbci	r23, 0xFF	; 255
     9ea:	80 8d       	ldd	r24, Z+24	; 0x18
     9ec:	91 8d       	ldd	r25, Z+25	; 0x19
     9ee:	0e 94 b0 06 	call	0xd60	; 0xd60 <OLED_print_string>
     9f2:	0a c0       	rjmp	.+20     	; 0xa08 <MENU_print_children+0x70>
     9f4:	d7 01       	movw	r26, r14
     9f6:	14 96       	adiw	r26, 0x04	; 4
     9f8:	ed 91       	ld	r30, X+
     9fa:	fc 91       	ld	r31, X
     9fc:	15 97       	sbiw	r26, 0x05	; 5
     9fe:	b8 01       	movw	r22, r16
     a00:	80 8d       	ldd	r24, Z+24	; 0x18
     a02:	91 8d       	ldd	r25, Z+25	; 0x19
     a04:	0e 94 b0 06 	call	0xd60	; 0xd60 <OLED_print_string>
     a08:	21 96       	adiw	r28, 0x01	; 1
     a0a:	00 58       	subi	r16, 0x80	; 128
     a0c:	1f 4f       	sbci	r17, 0xFF	; 255
     a0e:	b2 e0       	ldi	r27, 0x02	; 2
     a10:	eb 0e       	add	r14, r27
     a12:	f1 1c       	adc	r15, r1
     a14:	f6 01       	movw	r30, r12
     a16:	82 81       	ldd	r24, Z+2	; 0x02
     a18:	93 81       	ldd	r25, Z+3	; 0x03
     a1a:	c8 17       	cp	r28, r24
     a1c:	d9 07       	cpc	r29, r25
     a1e:	94 f2       	brlt	.-92     	; 0x9c4 <MENU_print_children+0x2c>
     a20:	df 91       	pop	r29
     a22:	cf 91       	pop	r28
     a24:	1f 91       	pop	r17
     a26:	0f 91       	pop	r16
     a28:	ff 90       	pop	r15
     a2a:	ef 90       	pop	r14
     a2c:	df 90       	pop	r13
     a2e:	cf 90       	pop	r12
     a30:	08 95       	ret

00000a32 <MENU_navigate>:
     a32:	ec 01       	movw	r28, r24
     a34:	06 ea       	ldi	r16, 0xA6	; 166
     a36:	11 e0       	ldi	r17, 0x01	; 1
     a38:	89 8d       	ldd	r24, Y+25	; 0x19
     a3a:	8f 93       	push	r24
     a3c:	88 8d       	ldd	r24, Y+24	; 0x18
     a3e:	8f 93       	push	r24
     a40:	1f 93       	push	r17
     a42:	0f 93       	push	r16
     a44:	0e 94 5d 0e 	call	0x1cba	; 0x1cba <printf>
     a48:	0e 94 ff 02 	call	0x5fe	; 0x5fe <joystick_dir>
     a4c:	0f 90       	pop	r0
     a4e:	0f 90       	pop	r0
     a50:	0f 90       	pop	r0
     a52:	0f 90       	pop	r0
     a54:	84 30       	cpi	r24, 0x04	; 4
     a56:	09 f4       	brne	.+2      	; 0xa5a <MENU_navigate+0x28>
     a58:	51 c0       	rjmp	.+162    	; 0xafc <MENU_navigate+0xca>
     a5a:	0e 94 ff 02 	call	0x5fe	; 0x5fe <joystick_dir>
     a5e:	81 30       	cpi	r24, 0x01	; 1
     a60:	19 f1       	breq	.+70     	; 0xaa8 <MENU_navigate+0x76>
     a62:	08 f4       	brcc	.+2      	; 0xa66 <MENU_navigate+0x34>
     a64:	40 c0       	rjmp	.+128    	; 0xae6 <MENU_navigate+0xb4>
     a66:	82 30       	cpi	r24, 0x02	; 2
     a68:	89 f0       	breq	.+34     	; 0xa8c <MENU_navigate+0x5a>
     a6a:	83 30       	cpi	r24, 0x03	; 3
     a6c:	09 f0       	breq	.+2      	; 0xa70 <MENU_navigate+0x3e>
     a6e:	42 c0       	rjmp	.+132    	; 0xaf4 <MENU_navigate+0xc2>
     a70:	8e 89       	ldd	r24, Y+22	; 0x16
     a72:	9f 89       	ldd	r25, Y+23	; 0x17
     a74:	01 96       	adiw	r24, 0x01	; 1
     a76:	2a 81       	ldd	r18, Y+2	; 0x02
     a78:	3b 81       	ldd	r19, Y+3	; 0x03
     a7a:	28 17       	cp	r18, r24
     a7c:	39 07       	cpc	r19, r25
     a7e:	19 f4       	brne	.+6      	; 0xa86 <MENU_navigate+0x54>
     a80:	1f 8a       	std	Y+23, r1	; 0x17
     a82:	1e 8a       	std	Y+22, r1	; 0x16
     a84:	37 c0       	rjmp	.+110    	; 0xaf4 <MENU_navigate+0xc2>
     a86:	9f 8b       	std	Y+23, r25	; 0x17
     a88:	8e 8b       	std	Y+22, r24	; 0x16
     a8a:	34 c0       	rjmp	.+104    	; 0xaf4 <MENU_navigate+0xc2>
     a8c:	8e 89       	ldd	r24, Y+22	; 0x16
     a8e:	9f 89       	ldd	r25, Y+23	; 0x17
     a90:	00 97       	sbiw	r24, 0x00	; 0
     a92:	31 f4       	brne	.+12     	; 0xaa0 <MENU_navigate+0x6e>
     a94:	8a 81       	ldd	r24, Y+2	; 0x02
     a96:	9b 81       	ldd	r25, Y+3	; 0x03
     a98:	01 97       	sbiw	r24, 0x01	; 1
     a9a:	9f 8b       	std	Y+23, r25	; 0x17
     a9c:	8e 8b       	std	Y+22, r24	; 0x16
     a9e:	2a c0       	rjmp	.+84     	; 0xaf4 <MENU_navigate+0xc2>
     aa0:	01 97       	sbiw	r24, 0x01	; 1
     aa2:	9f 8b       	std	Y+23, r25	; 0x17
     aa4:	8e 8b       	std	Y+22, r24	; 0x16
     aa6:	26 c0       	rjmp	.+76     	; 0xaf4 <MENU_navigate+0xc2>
     aa8:	ee 89       	ldd	r30, Y+22	; 0x16
     aaa:	ff 89       	ldd	r31, Y+23	; 0x17
     aac:	32 96       	adiw	r30, 0x02	; 2
     aae:	ee 0f       	add	r30, r30
     ab0:	ff 1f       	adc	r31, r31
     ab2:	ec 0f       	add	r30, r28
     ab4:	fd 1f       	adc	r31, r29
     ab6:	01 90       	ld	r0, Z+
     ab8:	f0 81       	ld	r31, Z
     aba:	e0 2d       	mov	r30, r0
     abc:	82 81       	ldd	r24, Z+2	; 0x02
     abe:	93 81       	ldd	r25, Z+3	; 0x03
     ac0:	89 2b       	or	r24, r25
     ac2:	b9 f4       	brne	.+46     	; 0xaf2 <MENU_navigate+0xc0>
     ac4:	0e 94 72 07 	call	0xee4	; 0xee4 <OLED_clearAll>
     ac8:	ee 89       	ldd	r30, Y+22	; 0x16
     aca:	ff 89       	ldd	r31, Y+23	; 0x17
     acc:	32 96       	adiw	r30, 0x02	; 2
     ace:	ee 0f       	add	r30, r30
     ad0:	ff 1f       	adc	r31, r31
     ad2:	ec 0f       	add	r30, r28
     ad4:	fd 1f       	adc	r31, r29
     ad6:	01 90       	ld	r0, Z+
     ad8:	f0 81       	ld	r31, Z
     ada:	e0 2d       	mov	r30, r0
     adc:	01 90       	ld	r0, Z+
     ade:	f0 81       	ld	r31, Z
     ae0:	e0 2d       	mov	r30, r0
     ae2:	09 95       	icall
     ae4:	07 c0       	rjmp	.+14     	; 0xaf4 <MENU_navigate+0xc2>
     ae6:	8c 89       	ldd	r24, Y+20	; 0x14
     ae8:	9d 89       	ldd	r25, Y+21	; 0x15
     aea:	00 97       	sbiw	r24, 0x00	; 0
     aec:	19 f0       	breq	.+6      	; 0xaf4 <MENU_navigate+0xc2>
     aee:	ec 01       	movw	r28, r24
     af0:	01 c0       	rjmp	.+2      	; 0xaf4 <MENU_navigate+0xc2>
     af2:	ef 01       	movw	r28, r30
     af4:	0e 94 ff 02 	call	0x5fe	; 0x5fe <joystick_dir>
     af8:	84 30       	cpi	r24, 0x04	; 4
     afa:	e1 f7       	brne	.-8      	; 0xaf4 <MENU_navigate+0xc2>
     afc:	0e 94 72 07 	call	0xee4	; 0xee4 <OLED_clearAll>
     b00:	ce 01       	movw	r24, r28
     b02:	0e 94 cc 04 	call	0x998	; 0x998 <MENU_print_children>
     b06:	0e 94 3e 07 	call	0xe7c	; 0xe7c <OLED_refresh>
     b0a:	96 cf       	rjmp	.-212    	; 0xa38 <MENU_navigate+0x6>

00000b0c <MENU_start>:
		while (TIM8_ReadTCNT0() < 200);
	}
}


void MENU_start(void) {
     b0c:	cf 93       	push	r28
     b0e:	df 93       	push	r29
     b10:	cd b7       	in	r28, 0x3d	; 61
     b12:	de b7       	in	r29, 0x3e	; 62
     b14:	c6 5b       	subi	r28, 0xB6	; 182
     b16:	d1 09       	sbc	r29, r1
     b18:	0f b6       	in	r0, 0x3f	; 63
     b1a:	f8 94       	cli
     b1c:	de bf       	out	0x3e, r29	; 62
     b1e:	0f be       	out	0x3f, r0	; 63
     b20:	cd bf       	out	0x3d, r28	; 61
	OLED_init();
     b22:	0e 94 0e 06 	call	0xc1c	; 0xc1c <OLED_init>
	OLED_clearAll();
     b26:	0e 94 72 07 	call	0xee4	; 0xee4 <OLED_clearAll>
	OLED_refresh();
     b2a:	0e 94 3e 07 	call	0xe7c	; 0xe7c <OLED_refresh>

	menu_t mainMenu;
	menu_ptr mainMenuPtr = &mainMenu;
	mainMenu.name = "Main menu";
     b2e:	8a eb       	ldi	r24, 0xBA	; 186
     b30:	91 e0       	ldi	r25, 0x01	; 1
     b32:	9a 8f       	std	Y+26, r25	; 0x1a
     b34:	89 8f       	std	Y+25, r24	; 0x19
	mainMenu.num_children = 3;
     b36:	23 e0       	ldi	r18, 0x03	; 3
     b38:	30 e0       	ldi	r19, 0x00	; 0
     b3a:	3c 83       	std	Y+4, r19	; 0x04
     b3c:	2b 83       	std	Y+3, r18	; 0x03
	mainMenu.selectedChild = 0;
     b3e:	18 8e       	std	Y+24, r1	; 0x18
     b40:	1f 8a       	std	Y+23, r1	; 0x17
	
	menu_t sub_menu0;
	menu_ptr sub_menu0Ptr = &sub_menu0;
	sub_menu0.parent = mainMenuPtr;
     b42:	ce 01       	movw	r24, r28
     b44:	01 96       	adiw	r24, 0x01	; 1
     b46:	98 ab       	std	Y+48, r25	; 0x30
     b48:	8f a7       	std	Y+47, r24	; 0x2f
	sub_menu0.num_children = 0;
     b4a:	1e 8e       	std	Y+30, r1	; 0x1e
     b4c:	1d 8e       	std	Y+29, r1	; 0x1d
	sub_menu0.name = "Start spill";
     b4e:	44 ec       	ldi	r20, 0xC4	; 196
     b50:	51 e0       	ldi	r21, 0x01	; 1
     b52:	5c ab       	std	Y+52, r21	; 0x34
     b54:	4b ab       	std	Y+51, r20	; 0x33
	sub_menu0.fun_ptr = &MENU_playGame;
     b56:	4a eb       	ldi	r20, 0xBA	; 186
     b58:	54 e0       	ldi	r21, 0x04	; 4
     b5a:	5c 8f       	std	Y+28, r21	; 0x1c
     b5c:	4b 8f       	std	Y+27, r20	; 0x1b
	
	menu_t sub_menu1;
	menu_ptr sub_menu1Ptr = &sub_menu1;
	sub_menu1.parent = mainMenuPtr;
     b5e:	2b 96       	adiw	r28, 0x0b	; 11
     b60:	9f af       	std	Y+63, r25	; 0x3f
     b62:	8e af       	std	Y+62, r24	; 0x3e
     b64:	2b 97       	sbiw	r28, 0x0b	; 11
	sub_menu1.num_children = 3;
     b66:	38 af       	std	Y+56, r19	; 0x38
     b68:	2f ab       	std	Y+55, r18	; 0x37
	sub_menu1.name = "Morofunksjoner";
     b6a:	20 ed       	ldi	r18, 0xD0	; 208
     b6c:	31 e0       	ldi	r19, 0x01	; 1
     b6e:	2f 96       	adiw	r28, 0x0f	; 15
     b70:	3f af       	std	Y+63, r19	; 0x3f
     b72:	2e af       	std	Y+62, r18	; 0x3e
     b74:	2f 97       	sbiw	r28, 0x0f	; 15
	
	menu_t sub_menu2;
	menu_ptr sub_menu2Ptr = &sub_menu2;
	sub_menu2.parent = mainMenuPtr;
     b76:	fe 01       	movw	r30, r28
     b78:	e1 5b       	subi	r30, 0xB1	; 177
     b7a:	ff 4f       	sbci	r31, 0xFF	; 255
     b7c:	95 8b       	std	Z+21, r25	; 0x15
     b7e:	84 8b       	std	Z+20, r24	; 0x14
	sub_menu2.num_children = 0;
     b80:	13 82       	std	Z+3, r1	; 0x03
     b82:	12 82       	std	Z+2, r1	; 0x02
	sub_menu2.name = "sub2";
     b84:	2f ed       	ldi	r18, 0xDF	; 223
     b86:	31 e0       	ldi	r19, 0x01	; 1
     b88:	31 8f       	std	Z+25, r19	; 0x19
     b8a:	20 8f       	std	Z+24, r18	; 0x18
	
	mainMenu.parent = NULL;
     b8c:	1e 8a       	std	Y+22, r1	; 0x16
     b8e:	1d 8a       	std	Y+21, r1	; 0x15
	mainMenu.children[0] = sub_menu0Ptr;
     b90:	9e 01       	movw	r18, r28
     b92:	25 5e       	subi	r18, 0xE5	; 229
     b94:	3f 4f       	sbci	r19, 0xFF	; 255
     b96:	3e 83       	std	Y+6, r19	; 0x06
     b98:	2d 83       	std	Y+5, r18	; 0x05
	mainMenu.children[1] = sub_menu1Ptr;
     b9a:	ae 01       	movw	r20, r28
     b9c:	4b 5c       	subi	r20, 0xCB	; 203
     b9e:	5f 4f       	sbci	r21, 0xFF	; 255
     ba0:	58 87       	std	Y+8, r21	; 0x08
     ba2:	4f 83       	std	Y+7, r20	; 0x07
	mainMenu.children[2] = sub_menu2Ptr;
     ba4:	fa 87       	std	Y+10, r31	; 0x0a
     ba6:	e9 87       	std	Y+9, r30	; 0x09
	
	menu_t sub_menu00;
	menu_ptr sub_menu00Ptr = &sub_menu00;
	sub_menu00.parent = sub_menu1Ptr;
     ba8:	22 5b       	subi	r18, 0xB2	; 178
     baa:	3f 4f       	sbci	r19, 0xFF	; 255
     bac:	f9 01       	movw	r30, r18
     bae:	55 8b       	std	Z+21, r21	; 0x15
     bb0:	44 8b       	std	Z+20, r20	; 0x14
	sub_menu00.num_children = 0;
     bb2:	13 82       	std	Z+3, r1	; 0x03
     bb4:	12 82       	std	Z+2, r1	; 0x02
	sub_menu00.name = "quick pong";
     bb6:	64 ee       	ldi	r22, 0xE4	; 228
     bb8:	71 e0       	ldi	r23, 0x01	; 1
     bba:	71 8f       	std	Z+25, r23	; 0x19
     bbc:	60 8f       	std	Z+24, r22	; 0x18
	sub_menu00.fun_ptr = &pong_fast;
     bbe:	62 e8       	ldi	r22, 0x82	; 130
     bc0:	77 e0       	ldi	r23, 0x07	; 7
     bc2:	71 83       	std	Z+1, r23	; 0x01
     bc4:	60 83       	st	Z, r22
	
	menu_t sub_menu10;
	menu_ptr sub_menu10Ptr = &sub_menu10;
	sub_menu10.parent = sub_menu1Ptr;
     bc6:	de 01       	movw	r26, r28
     bc8:	ad 57       	subi	r26, 0x7D	; 125
     bca:	bf 4f       	sbci	r27, 0xFF	; 255
     bcc:	55 96       	adiw	r26, 0x15	; 21
     bce:	5c 93       	st	X, r21
     bd0:	4e 93       	st	-X, r20
     bd2:	54 97       	sbiw	r26, 0x14	; 20
	sub_menu10.num_children = 0;
     bd4:	13 96       	adiw	r26, 0x03	; 3
     bd6:	1c 92       	st	X, r1
     bd8:	1e 92       	st	-X, r1
     bda:	12 97       	sbiw	r26, 0x02	; 2
	sub_menu10.name = "slow pong";
     bdc:	6f ee       	ldi	r22, 0xEF	; 239
     bde:	71 e0       	ldi	r23, 0x01	; 1
     be0:	59 96       	adiw	r26, 0x19	; 25
     be2:	7c 93       	st	X, r23
     be4:	6e 93       	st	-X, r22
     be6:	58 97       	sbiw	r26, 0x18	; 24
	sub_menu10.fun_ptr = &pong_slow;
     be8:	6f e1       	ldi	r22, 0x1F	; 31
     bea:	7a e0       	ldi	r23, 0x0A	; 10
     bec:	11 96       	adiw	r26, 0x01	; 1
     bee:	7c 93       	st	X, r23
     bf0:	6e 93       	st	-X, r22
	
	menu_t sub_menu20;
	menu_ptr sub_menu20Ptr = &sub_menu20;
	sub_menu20.parent = sub_menu1Ptr;
     bf2:	f4 96       	adiw	r30, 0x34	; 52
     bf4:	55 8b       	std	Z+21, r21	; 0x15
     bf6:	44 8b       	std	Z+20, r20	; 0x14
	sub_menu20.num_children = 0;
     bf8:	13 82       	std	Z+3, r1	; 0x03
     bfa:	12 82       	std	Z+2, r1	; 0x02
	sub_menu20.name = "Invers";
     bfc:	49 ef       	ldi	r20, 0xF9	; 249
     bfe:	51 e0       	ldi	r21, 0x01	; 1
     c00:	51 8f       	std	Z+25, r21	; 0x19
     c02:	40 8f       	std	Z+24, r20	; 0x18
	sub_menu20.fun_ptr = &MENU_veryFunInvertingFunction;
     c04:	44 ea       	ldi	r20, 0xA4	; 164
     c06:	54 e0       	ldi	r21, 0x04	; 4
     c08:	51 83       	std	Z+1, r21	; 0x01
     c0a:	40 83       	st	Z, r20
	sub_menu1.children[0] = sub_menu00Ptr;
     c0c:	3a af       	std	Y+58, r19	; 0x3a
     c0e:	29 af       	std	Y+57, r18	; 0x39
	sub_menu1.children[1] = sub_menu10Ptr;
     c10:	bc af       	std	Y+60, r27	; 0x3c
     c12:	ab af       	std	Y+59, r26	; 0x3b
	sub_menu1.children[2] = sub_menu20Ptr;
     c14:	fe af       	std	Y+62, r31	; 0x3e
     c16:	ed af       	std	Y+61, r30	; 0x3d
	
	MENU_navigate(mainMenuPtr);
     c18:	0e 94 19 05 	call	0xa32	; 0xa32 <MENU_navigate>

00000c1c <OLED_init>:
	
		XMEM_write(0xB0 + page, 0xB0 + page);  // Set page in command register
		XMEM_write(lowerCol, lowerCol);		// Set lower column start address
		XMEM_write(0x10 + upperCol, 0x10 + upperCol);   // Set higher column start address
	}
}
     c1c:	6e ea       	ldi	r22, 0xAE	; 174
     c1e:	70 e0       	ldi	r23, 0x00	; 0
     c20:	8e ea       	ldi	r24, 0xAE	; 174
     c22:	0e 94 20 0c 	call	0x1840	; 0x1840 <XMEM_write>
     c26:	61 ea       	ldi	r22, 0xA1	; 161
     c28:	70 e0       	ldi	r23, 0x00	; 0
     c2a:	81 ea       	ldi	r24, 0xA1	; 161
     c2c:	0e 94 20 0c 	call	0x1840	; 0x1840 <XMEM_write>
     c30:	6a ed       	ldi	r22, 0xDA	; 218
     c32:	70 e0       	ldi	r23, 0x00	; 0
     c34:	8a ed       	ldi	r24, 0xDA	; 218
     c36:	0e 94 20 0c 	call	0x1840	; 0x1840 <XMEM_write>
     c3a:	62 e1       	ldi	r22, 0x12	; 18
     c3c:	70 e0       	ldi	r23, 0x00	; 0
     c3e:	82 e1       	ldi	r24, 0x12	; 18
     c40:	0e 94 20 0c 	call	0x1840	; 0x1840 <XMEM_write>
     c44:	68 ec       	ldi	r22, 0xC8	; 200
     c46:	70 e0       	ldi	r23, 0x00	; 0
     c48:	88 ec       	ldi	r24, 0xC8	; 200
     c4a:	0e 94 20 0c 	call	0x1840	; 0x1840 <XMEM_write>
     c4e:	68 ea       	ldi	r22, 0xA8	; 168
     c50:	70 e0       	ldi	r23, 0x00	; 0
     c52:	88 ea       	ldi	r24, 0xA8	; 168
     c54:	0e 94 20 0c 	call	0x1840	; 0x1840 <XMEM_write>
     c58:	6f e3       	ldi	r22, 0x3F	; 63
     c5a:	70 e0       	ldi	r23, 0x00	; 0
     c5c:	8f e3       	ldi	r24, 0x3F	; 63
     c5e:	0e 94 20 0c 	call	0x1840	; 0x1840 <XMEM_write>
     c62:	65 ed       	ldi	r22, 0xD5	; 213
     c64:	70 e0       	ldi	r23, 0x00	; 0
     c66:	85 ed       	ldi	r24, 0xD5	; 213
     c68:	0e 94 20 0c 	call	0x1840	; 0x1840 <XMEM_write>
     c6c:	60 e8       	ldi	r22, 0x80	; 128
     c6e:	70 e0       	ldi	r23, 0x00	; 0
     c70:	80 e8       	ldi	r24, 0x80	; 128
     c72:	0e 94 20 0c 	call	0x1840	; 0x1840 <XMEM_write>
     c76:	61 e8       	ldi	r22, 0x81	; 129
     c78:	70 e0       	ldi	r23, 0x00	; 0
     c7a:	81 e8       	ldi	r24, 0x81	; 129
     c7c:	0e 94 20 0c 	call	0x1840	; 0x1840 <XMEM_write>
     c80:	60 e5       	ldi	r22, 0x50	; 80
     c82:	70 e0       	ldi	r23, 0x00	; 0
     c84:	80 e5       	ldi	r24, 0x50	; 80
     c86:	0e 94 20 0c 	call	0x1840	; 0x1840 <XMEM_write>
     c8a:	69 ed       	ldi	r22, 0xD9	; 217
     c8c:	70 e0       	ldi	r23, 0x00	; 0
     c8e:	89 ed       	ldi	r24, 0xD9	; 217
     c90:	0e 94 20 0c 	call	0x1840	; 0x1840 <XMEM_write>
     c94:	61 e2       	ldi	r22, 0x21	; 33
     c96:	70 e0       	ldi	r23, 0x00	; 0
     c98:	81 e2       	ldi	r24, 0x21	; 33
     c9a:	0e 94 20 0c 	call	0x1840	; 0x1840 <XMEM_write>
     c9e:	60 e2       	ldi	r22, 0x20	; 32
     ca0:	70 e0       	ldi	r23, 0x00	; 0
     ca2:	80 e2       	ldi	r24, 0x20	; 32
     ca4:	0e 94 20 0c 	call	0x1840	; 0x1840 <XMEM_write>
     ca8:	62 e0       	ldi	r22, 0x02	; 2
     caa:	70 e0       	ldi	r23, 0x00	; 0
     cac:	82 e0       	ldi	r24, 0x02	; 2
     cae:	0e 94 20 0c 	call	0x1840	; 0x1840 <XMEM_write>
     cb2:	6b ed       	ldi	r22, 0xDB	; 219
     cb4:	70 e0       	ldi	r23, 0x00	; 0
     cb6:	8b ed       	ldi	r24, 0xDB	; 219
     cb8:	0e 94 20 0c 	call	0x1840	; 0x1840 <XMEM_write>
     cbc:	60 e3       	ldi	r22, 0x30	; 48
     cbe:	70 e0       	ldi	r23, 0x00	; 0
     cc0:	80 e3       	ldi	r24, 0x30	; 48
     cc2:	0e 94 20 0c 	call	0x1840	; 0x1840 <XMEM_write>
     cc6:	6d ea       	ldi	r22, 0xAD	; 173
     cc8:	70 e0       	ldi	r23, 0x00	; 0
     cca:	8d ea       	ldi	r24, 0xAD	; 173
     ccc:	0e 94 20 0c 	call	0x1840	; 0x1840 <XMEM_write>
     cd0:	60 e0       	ldi	r22, 0x00	; 0
     cd2:	70 e0       	ldi	r23, 0x00	; 0
     cd4:	80 e0       	ldi	r24, 0x00	; 0
     cd6:	0e 94 20 0c 	call	0x1840	; 0x1840 <XMEM_write>
     cda:	64 ea       	ldi	r22, 0xA4	; 164
     cdc:	70 e0       	ldi	r23, 0x00	; 0
     cde:	84 ea       	ldi	r24, 0xA4	; 164
     ce0:	0e 94 20 0c 	call	0x1840	; 0x1840 <XMEM_write>
     ce4:	66 ea       	ldi	r22, 0xA6	; 166
     ce6:	70 e0       	ldi	r23, 0x00	; 0
     ce8:	86 ea       	ldi	r24, 0xA6	; 166
     cea:	0e 94 20 0c 	call	0x1840	; 0x1840 <XMEM_write>
     cee:	63 ed       	ldi	r22, 0xD3	; 211
     cf0:	70 e0       	ldi	r23, 0x00	; 0
     cf2:	83 ed       	ldi	r24, 0xD3	; 211
     cf4:	0e 94 20 0c 	call	0x1840	; 0x1840 <XMEM_write>
     cf8:	60 e0       	ldi	r22, 0x00	; 0
     cfa:	70 e0       	ldi	r23, 0x00	; 0
     cfc:	80 e0       	ldi	r24, 0x00	; 0
     cfe:	0e 94 20 0c 	call	0x1840	; 0x1840 <XMEM_write>
     d02:	6f ea       	ldi	r22, 0xAF	; 175
     d04:	70 e0       	ldi	r23, 0x00	; 0
     d06:	8f ea       	ldi	r24, 0xAF	; 175
     d08:	0e 94 20 0c 	call	0x1840	; 0x1840 <XMEM_write>
     d0c:	08 95       	ret

00000d0e <OLED_print_char>:



void OLED_print_char(char c, int offset) {
     d0e:	ef 92       	push	r14
     d10:	ff 92       	push	r15
     d12:	0f 93       	push	r16
     d14:	1f 93       	push	r17
     d16:	cf 93       	push	r28
     d18:	df 93       	push	r29
     d1a:	80 52       	subi	r24, 0x20	; 32
     d1c:	08 2f       	mov	r16, r24
     d1e:	10 e0       	ldi	r17, 0x00	; 0
     d20:	00 0f       	add	r16, r16
     d22:	11 1f       	adc	r17, r17
     d24:	00 0f       	add	r16, r16
     d26:	11 1f       	adc	r17, r17
     d28:	00 0f       	add	r16, r16
     d2a:	11 1f       	adc	r17, r17
     d2c:	00 59       	subi	r16, 0x90	; 144
     d2e:	1f 4f       	sbci	r17, 0xFF	; 255
     d30:	eb 01       	movw	r28, r22
     d32:	d8 5f       	subi	r29, 0xF8	; 248
     d34:	7b 01       	movw	r14, r22
     d36:	88 e0       	ldi	r24, 0x08	; 8
     d38:	e8 0e       	add	r14, r24
     d3a:	f8 1e       	adc	r15, r24
	c -= 32; // ASCII offset 
	for (int row = 0; row < 8; row++) {
		//printf("\n\r%X0", pgm_read_byte(&font8[c][row]));
		XMEM_write(pgm_read_byte(&font8[c][row]), 0x800 + row + offset);
     d3c:	f8 01       	movw	r30, r16
     d3e:	84 91       	lpm	r24, Z
     d40:	be 01       	movw	r22, r28
     d42:	0e 94 20 0c 	call	0x1840	; 0x1840 <XMEM_write>
     d46:	0f 5f       	subi	r16, 0xFF	; 255
     d48:	1f 4f       	sbci	r17, 0xFF	; 255
     d4a:	21 96       	adiw	r28, 0x01	; 1



void OLED_print_char(char c, int offset) {
	c -= 32; // ASCII offset 
	for (int row = 0; row < 8; row++) {
     d4c:	ce 15       	cp	r28, r14
     d4e:	df 05       	cpc	r29, r15
     d50:	a9 f7       	brne	.-22     	; 0xd3c <OLED_print_char+0x2e>
		//printf("\n\r%X0", pgm_read_byte(&font8[c][row]));
		XMEM_write(pgm_read_byte(&font8[c][row]), 0x800 + row + offset);
	}
}
     d52:	df 91       	pop	r29
     d54:	cf 91       	pop	r28
     d56:	1f 91       	pop	r17
     d58:	0f 91       	pop	r16
     d5a:	ff 90       	pop	r15
     d5c:	ef 90       	pop	r14
     d5e:	08 95       	ret

00000d60 <OLED_print_string>:

void OLED_print_string(char *c, int offset) {
     d60:	0f 93       	push	r16
     d62:	1f 93       	push	r17
     d64:	cf 93       	push	r28
     d66:	df 93       	push	r29
     d68:	fc 01       	movw	r30, r24
	int i = 0;
	while (c[i] != '\0') {
     d6a:	80 81       	ld	r24, Z
     d6c:	88 23       	and	r24, r24
     d6e:	71 f0       	breq	.+28     	; 0xd8c <OLED_print_string+0x2c>
     d70:	8f 01       	movw	r16, r30
     d72:	c6 2f       	mov	r28, r22
     d74:	d7 2f       	mov	r29, r23
     d76:	0f 5f       	subi	r16, 0xFF	; 255
     d78:	1f 4f       	sbci	r17, 0xFF	; 255
		OLED_print_char(c[i], i*8 + offset);
     d7a:	be 01       	movw	r22, r28
     d7c:	0e 94 87 06 	call	0xd0e	; 0xd0e <OLED_print_char>
	}
}

void OLED_print_string(char *c, int offset) {
	int i = 0;
	while (c[i] != '\0') {
     d80:	f8 01       	movw	r30, r16
     d82:	81 91       	ld	r24, Z+
     d84:	8f 01       	movw	r16, r30
     d86:	28 96       	adiw	r28, 0x08	; 8
     d88:	81 11       	cpse	r24, r1
     d8a:	f7 cf       	rjmp	.-18     	; 0xd7a <OLED_print_string+0x1a>
		OLED_print_char(c[i], i*8 + offset);
		i++;
	}
}
     d8c:	df 91       	pop	r29
     d8e:	cf 91       	pop	r28
     d90:	1f 91       	pop	r17
     d92:	0f 91       	pop	r16
     d94:	08 95       	ret

00000d96 <OLED_set_pixel>:

void OLED_set_pixel(int x, int y){
     d96:	0f 93       	push	r16
     d98:	1f 93       	push	r17
     d9a:	cf 93       	push	r28
     d9c:	df 93       	push	r29
	if (x < 128 && x >= 0 && y < 64 && y >= 0){
     d9e:	80 38       	cpi	r24, 0x80	; 128
     da0:	91 05       	cpc	r25, r1
     da2:	68 f5       	brcc	.+90     	; 0xdfe <OLED_set_pixel+0x68>
     da4:	60 34       	cpi	r22, 0x40	; 64
     da6:	71 05       	cpc	r23, r1
     da8:	50 f5       	brcc	.+84     	; 0xdfe <OLED_set_pixel+0x68>
		int page = y/8;
     daa:	eb 01       	movw	r28, r22
     dac:	77 23       	and	r23, r23
     dae:	0c f4       	brge	.+2      	; 0xdb2 <OLED_set_pixel+0x1c>
     db0:	27 96       	adiw	r28, 0x07	; 7
     db2:	d5 95       	asr	r29
     db4:	c7 95       	ror	r28
     db6:	d5 95       	asr	r29
     db8:	c7 95       	ror	r28
     dba:	d5 95       	asr	r29
     dbc:	c7 95       	ror	r28
		int height = y - page*8;
     dbe:	9e 01       	movw	r18, r28
     dc0:	22 0f       	add	r18, r18
     dc2:	33 1f       	adc	r19, r19
     dc4:	22 0f       	add	r18, r18
     dc6:	33 1f       	adc	r19, r19
     dc8:	22 0f       	add	r18, r18
     dca:	33 1f       	adc	r19, r19
     dcc:	8b 01       	movw	r16, r22
     dce:	02 1b       	sub	r16, r18
     dd0:	13 0b       	sbc	r17, r19
		uint16_t index = 0x800 + page*128 + x;
     dd2:	60 96       	adiw	r28, 0x10	; 16
     dd4:	d6 95       	lsr	r29
     dd6:	dc 2f       	mov	r29, r28
     dd8:	cc 27       	eor	r28, r28
     dda:	d7 95       	ror	r29
     ddc:	c7 95       	ror	r28
     dde:	c8 0f       	add	r28, r24
     de0:	d9 1f       	adc	r29, r25
		uint8_t value = XMEM_read(index);
     de2:	ce 01       	movw	r24, r28
     de4:	0e 94 1c 0c 	call	0x1838	; 0x1838 <XMEM_read>
		value |= (1 << height);
     de8:	21 e0       	ldi	r18, 0x01	; 1
     dea:	30 e0       	ldi	r19, 0x00	; 0
     dec:	02 c0       	rjmp	.+4      	; 0xdf2 <OLED_set_pixel+0x5c>
     dee:	22 0f       	add	r18, r18
     df0:	33 1f       	adc	r19, r19
     df2:	0a 95       	dec	r16
     df4:	e2 f7       	brpl	.-8      	; 0xdee <OLED_set_pixel+0x58>
		XMEM_write(value, index);
     df6:	be 01       	movw	r22, r28
     df8:	82 2b       	or	r24, r18
     dfa:	0e 94 20 0c 	call	0x1840	; 0x1840 <XMEM_write>
	}
}
     dfe:	df 91       	pop	r29
     e00:	cf 91       	pop	r28
     e02:	1f 91       	pop	r17
     e04:	0f 91       	pop	r16
     e06:	08 95       	ret

00000e08 <OLED_reset_pixel>:

void OLED_reset_pixel(int x, int y){
     e08:	0f 93       	push	r16
     e0a:	1f 93       	push	r17
     e0c:	cf 93       	push	r28
     e0e:	df 93       	push	r29
	if (x < 128 && x >= 0 && y < 64 && y >= 0){
     e10:	80 38       	cpi	r24, 0x80	; 128
     e12:	91 05       	cpc	r25, r1
     e14:	70 f5       	brcc	.+92     	; 0xe72 <OLED_reset_pixel+0x6a>
     e16:	60 34       	cpi	r22, 0x40	; 64
     e18:	71 05       	cpc	r23, r1
     e1a:	58 f5       	brcc	.+86     	; 0xe72 <OLED_reset_pixel+0x6a>
	int page = y/8;
     e1c:	eb 01       	movw	r28, r22
     e1e:	77 23       	and	r23, r23
     e20:	0c f4       	brge	.+2      	; 0xe24 <OLED_reset_pixel+0x1c>
     e22:	27 96       	adiw	r28, 0x07	; 7
     e24:	d5 95       	asr	r29
     e26:	c7 95       	ror	r28
     e28:	d5 95       	asr	r29
     e2a:	c7 95       	ror	r28
     e2c:	d5 95       	asr	r29
     e2e:	c7 95       	ror	r28
	int height = y - page*8;
     e30:	9e 01       	movw	r18, r28
     e32:	22 0f       	add	r18, r18
     e34:	33 1f       	adc	r19, r19
     e36:	22 0f       	add	r18, r18
     e38:	33 1f       	adc	r19, r19
     e3a:	22 0f       	add	r18, r18
     e3c:	33 1f       	adc	r19, r19
     e3e:	8b 01       	movw	r16, r22
     e40:	02 1b       	sub	r16, r18
     e42:	13 0b       	sbc	r17, r19
	uint16_t index = 0x800 + page*128 + x;
     e44:	60 96       	adiw	r28, 0x10	; 16
     e46:	d6 95       	lsr	r29
     e48:	dc 2f       	mov	r29, r28
     e4a:	cc 27       	eor	r28, r28
     e4c:	d7 95       	ror	r29
     e4e:	c7 95       	ror	r28
     e50:	c8 0f       	add	r28, r24
     e52:	d9 1f       	adc	r29, r25
	uint8_t value = XMEM_read(index);
     e54:	ce 01       	movw	r24, r28
     e56:	0e 94 1c 0c 	call	0x1838	; 0x1838 <XMEM_read>
	value &= ~(1 << height);
     e5a:	21 e0       	ldi	r18, 0x01	; 1
     e5c:	30 e0       	ldi	r19, 0x00	; 0
     e5e:	02 c0       	rjmp	.+4      	; 0xe64 <OLED_reset_pixel+0x5c>
     e60:	22 0f       	add	r18, r18
     e62:	33 1f       	adc	r19, r19
     e64:	0a 95       	dec	r16
     e66:	e2 f7       	brpl	.-8      	; 0xe60 <OLED_reset_pixel+0x58>
     e68:	20 95       	com	r18
	XMEM_write(value, index);
     e6a:	be 01       	movw	r22, r28
     e6c:	82 23       	and	r24, r18
     e6e:	0e 94 20 0c 	call	0x1840	; 0x1840 <XMEM_write>
	}
}
     e72:	df 91       	pop	r29
     e74:	cf 91       	pop	r28
     e76:	1f 91       	pop	r17
     e78:	0f 91       	pop	r16
     e7a:	08 95       	ret

00000e7c <OLED_refresh>:


void OLED_refresh(void){
     e7c:	ff 92       	push	r15
     e7e:	0f 93       	push	r16
     e80:	1f 93       	push	r17
     e82:	cf 93       	push	r28
     e84:	df 93       	push	r29
     e86:	c0 e0       	ldi	r28, 0x00	; 0
     e88:	d8 e0       	ldi	r29, 0x08	; 8
     e8a:	0f 2e       	mov	r0, r31
     e8c:	f0 eb       	ldi	r31, 0xB0	; 176
     e8e:	ff 2e       	mov	r15, r31
     e90:	f0 2d       	mov	r31, r0
	for (int page = 0; page < 8; page++){
		XMEM_write(0xB0 + page, 0/*B0 + page*/);  // Set command register
     e92:	60 e0       	ldi	r22, 0x00	; 0
     e94:	70 e0       	ldi	r23, 0x00	; 0
     e96:	8f 2d       	mov	r24, r15
     e98:	0e 94 20 0c 	call	0x1840	; 0x1840 <XMEM_write>
		XMEM_write(0, 0);		// Set lower column start address
     e9c:	60 e0       	ldi	r22, 0x00	; 0
     e9e:	70 e0       	ldi	r23, 0x00	; 0
     ea0:	80 e0       	ldi	r24, 0x00	; 0
     ea2:	0e 94 20 0c 	call	0x1840	; 0x1840 <XMEM_write>
		XMEM_write(0x10, 0);		// Set higher column start address
     ea6:	60 e0       	ldi	r22, 0x00	; 0
     ea8:	70 e0       	ldi	r23, 0x00	; 0
     eaa:	80 e1       	ldi	r24, 0x10	; 16
     eac:	0e 94 20 0c 	call	0x1840	; 0x1840 <XMEM_write>
     eb0:	8e 01       	movw	r16, r28
     eb2:	00 58       	subi	r16, 0x80	; 128
     eb4:	1f 4f       	sbci	r17, 0xFF	; 255
		
		for (int column = 0; column < 128; column++){
			uint8_t SRAMvalue = XMEM_read(0x800 + page*128 + column);
     eb6:	ce 01       	movw	r24, r28
     eb8:	0e 94 1c 0c 	call	0x1838	; 0x1838 <XMEM_read>
			XMEM_write(SRAMvalue, 0x200 + SRAMvalue);
     ebc:	68 2f       	mov	r22, r24
     ebe:	70 e0       	ldi	r23, 0x00	; 0
     ec0:	7e 5f       	subi	r23, 0xFE	; 254
     ec2:	0e 94 20 0c 	call	0x1840	; 0x1840 <XMEM_write>
     ec6:	21 96       	adiw	r28, 0x01	; 1
	for (int page = 0; page < 8; page++){
		XMEM_write(0xB0 + page, 0/*B0 + page*/);  // Set command register
		XMEM_write(0, 0);		// Set lower column start address
		XMEM_write(0x10, 0);		// Set higher column start address
		
		for (int column = 0; column < 128; column++){
     ec8:	c0 17       	cp	r28, r16
     eca:	d1 07       	cpc	r29, r17
     ecc:	a1 f7       	brne	.-24     	; 0xeb6 <OLED_refresh+0x3a>
     ece:	f3 94       	inc	r15
     ed0:	e8 01       	movw	r28, r16
	}
}


void OLED_refresh(void){
	for (int page = 0; page < 8; page++){
     ed2:	01 15       	cp	r16, r1
     ed4:	1c 40       	sbci	r17, 0x0C	; 12
     ed6:	e9 f6       	brne	.-70     	; 0xe92 <OLED_refresh+0x16>
		for (int column = 0; column < 128; column++){
			uint8_t SRAMvalue = XMEM_read(0x800 + page*128 + column);
			XMEM_write(SRAMvalue, 0x200 + SRAMvalue);
		}
	}
}
     ed8:	df 91       	pop	r29
     eda:	cf 91       	pop	r28
     edc:	1f 91       	pop	r17
     ede:	0f 91       	pop	r16
     ee0:	ff 90       	pop	r15
     ee2:	08 95       	ret

00000ee4 <OLED_clearAll>:


void OLED_clearAll(void) {
     ee4:	cf 93       	push	r28
     ee6:	df 93       	push	r29
	for (uint16_t index = 0x800; index < 0x800 + 1024; index++){
     ee8:	c0 e0       	ldi	r28, 0x00	; 0
     eea:	d8 e0       	ldi	r29, 0x08	; 8
		XMEM_write(0, index);
     eec:	be 01       	movw	r22, r28
     eee:	80 e0       	ldi	r24, 0x00	; 0
     ef0:	0e 94 20 0c 	call	0x1840	; 0x1840 <XMEM_write>
	}
}


void OLED_clearAll(void) {
	for (uint16_t index = 0x800; index < 0x800 + 1024; index++){
     ef4:	21 96       	adiw	r28, 0x01	; 1
     ef6:	c1 15       	cp	r28, r1
     ef8:	8c e0       	ldi	r24, 0x0C	; 12
     efa:	d8 07       	cpc	r29, r24
     efc:	b9 f7       	brne	.-18     	; 0xeec <OLED_clearAll+0x8>
		XMEM_write(0, index);
	}
}
     efe:	df 91       	pop	r29
     f00:	cf 91       	pop	r28
     f02:	08 95       	ret

00000f04 <pong_fast>:
#include <stddef.h>
#include <math.h>
#define F_CPU 4915200
#include <util/delay.h>

void pong_fast() {
     f04:	cf 93       	push	r28
     f06:	df 93       	push	r29
     f08:	cd b7       	in	r28, 0x3d	; 61
     f0a:	de b7       	in	r29, 0x3e	; 62
     f0c:	6a 97       	sbiw	r28, 0x1a	; 26
     f0e:	0f b6       	in	r0, 0x3f	; 63
     f10:	f8 94       	cli
     f12:	de bf       	out	0x3e, r29	; 62
     f14:	0f be       	out	0x3f, r0	; 63
     f16:	cd bf       	out	0x3d, r28	; 61

	int rightPoints = 0;
	int leftPoints = 0;
	float difference = 0;

	OLED_clearAll();
     f18:	0e 94 72 07 	call	0xee4	; 0xee4 <OLED_clearAll>
	OLED_refresh();
     f1c:	0e 94 3e 07 	call	0xe7c	; 0xe7c <OLED_refresh>
	uint8_t rightPaddleY = 31;
	uint8_t lowerColRightPaddle = 124 & 0x0F;	//left paddle
	uint8_t upperColRightPaddle = 124 >> 4;

	int rightPoints = 0;
	int leftPoints = 0;
     f20:	18 8e       	std	Y+24, r1	; 0x18
     f22:	1f 8a       	std	Y+23, r1	; 0x17
	uint8_t rightPaddleX = 124;
	uint8_t rightPaddleY = 31;
	uint8_t lowerColRightPaddle = 124 & 0x0F;	//left paddle
	uint8_t upperColRightPaddle = 124 >> 4;

	int rightPoints = 0;
     f24:	1e 8a       	std	Y+22, r1	; 0x16
     f26:	1d 8a       	std	Y+21, r1	; 0x15
	OLED_clearAll();
	OLED_refresh();

	while (1) {
		float x = 63;
		float y = 31;
     f28:	19 82       	std	Y+1, r1	; 0x01
     f2a:	1a 82       	std	Y+2, r1	; 0x02
     f2c:	28 ef       	ldi	r18, 0xF8	; 248
     f2e:	2b 83       	std	Y+3, r18	; 0x03
     f30:	31 e4       	ldi	r19, 0x41	; 65
     f32:	3c 83       	std	Y+4, r19	; 0x04

	OLED_clearAll();
	OLED_refresh();

	while (1) {
		float x = 63;
     f34:	e1 2c       	mov	r14, r1
     f36:	f1 2c       	mov	r15, r1
     f38:	0f 2e       	mov	r0, r31
     f3a:	fc e7       	ldi	r31, 0x7C	; 124
     f3c:	cf 2e       	mov	r12, r31
     f3e:	f0 2d       	mov	r31, r0
     f40:	0f 2e       	mov	r0, r31
     f42:	f2 e4       	ldi	r31, 0x42	; 66
     f44:	df 2e       	mov	r13, r31
     f46:	f0 2d       	mov	r31, r0
		float y = 31;
		x_vel = 1;
		y_vel = 0;
     f48:	1d 86       	std	Y+13, r1	; 0x0d
     f4a:	1e 86       	std	Y+14, r1	; 0x0e
     f4c:	1f 86       	std	Y+15, r1	; 0x0f
     f4e:	18 8a       	std	Y+16, r1	; 0x10
	OLED_refresh();

	while (1) {
		float x = 63;
		float y = 31;
		x_vel = 1;
     f50:	19 8a       	std	Y+17, r1	; 0x11
     f52:	1a 8a       	std	Y+18, r1	; 0x12
     f54:	80 e8       	ldi	r24, 0x80	; 128
     f56:	8b 8b       	std	Y+19, r24	; 0x13
     f58:	9f e3       	ldi	r25, 0x3F	; 63
     f5a:	9c 8b       	std	Y+20, r25	; 0x14
     f5c:	2e 2c       	mov	r2, r14
     f5e:	3f 2c       	mov	r3, r15
		y_vel = 0;
		while (1) {
			TIM8_WriteTCNT2(0);
     f60:	80 e0       	ldi	r24, 0x00	; 0
     f62:	90 e0       	ldi	r25, 0x00	; 0
     f64:	0e 94 f0 0b 	call	0x17e0	; 0x17e0 <TIM8_WriteTCNT2>
			rightPaddleY = (ADC_slider_right()) / 4;
     f68:	0e 94 0f 02 	call	0x41e	; 0x41e <ADC_slider_right>
     f6c:	08 2f       	mov	r16, r24
     f6e:	06 95       	lsr	r16
     f70:	06 95       	lsr	r16
			leftPaddleY = (ADC_slider_left()) / 4;
     f72:	0e 94 fb 01 	call	0x3f6	; 0x3f6 <ADC_slider_left>
     f76:	18 2f       	mov	r17, r24
     f78:	16 95       	lsr	r17
     f7a:	16 95       	lsr	r17
			xPrev = x;
			yPrev = y;
			
			OLED_reset_pixel((int)xPrev, (int)yPrev);	//clears last ball location
     f7c:	69 81       	ldd	r22, Y+1	; 0x01
     f7e:	7a 81       	ldd	r23, Y+2	; 0x02
     f80:	8b 81       	ldd	r24, Y+3	; 0x03
     f82:	9c 81       	ldd	r25, Y+4	; 0x04
     f84:	0e 94 b8 0c 	call	0x1970	; 0x1970 <__fixsfsi>
     f88:	6d 83       	std	Y+5, r22	; 0x05
     f8a:	7e 83       	std	Y+6, r23	; 0x06
     f8c:	8f 83       	std	Y+7, r24	; 0x07
     f8e:	98 87       	std	Y+8, r25	; 0x08
     f90:	ad 81       	ldd	r26, Y+5	; 0x05
     f92:	be 81       	ldd	r27, Y+6	; 0x06
     f94:	ba 87       	std	Y+10, r27	; 0x0a
     f96:	a9 87       	std	Y+9, r26	; 0x09
     f98:	62 2d       	mov	r22, r2
     f9a:	73 2d       	mov	r23, r3
     f9c:	8c 2d       	mov	r24, r12
     f9e:	9d 2d       	mov	r25, r13
     fa0:	0e 94 b8 0c 	call	0x1970	; 0x1970 <__fixsfsi>
     fa4:	2b 01       	movw	r4, r22
     fa6:	3c 01       	movw	r6, r24
     fa8:	6d 81       	ldd	r22, Y+5	; 0x05
     faa:	7e 81       	ldd	r23, Y+6	; 0x06
     fac:	c2 01       	movw	r24, r4
     fae:	0e 94 04 07 	call	0xe08	; 0xe08 <OLED_reset_pixel>
			
			XMEM_write(0xB0 + (int)yPrev/8, 0xB0 + (int)yPrev/8);	//set page to ball-page
     fb2:	8d 81       	ldd	r24, Y+5	; 0x05
     fb4:	9e 81       	ldd	r25, Y+6	; 0x06
     fb6:	29 85       	ldd	r18, Y+9	; 0x09
     fb8:	3a 85       	ldd	r19, Y+10	; 0x0a
     fba:	33 23       	and	r19, r19
     fbc:	0c f4       	brge	.+2      	; 0xfc0 <pong_fast+0xbc>
     fbe:	07 96       	adiw	r24, 0x07	; 7
     fc0:	dc 01       	movw	r26, r24
     fc2:	b5 95       	asr	r27
     fc4:	a7 95       	ror	r26
     fc6:	b5 95       	asr	r27
     fc8:	a7 95       	ror	r26
     fca:	b5 95       	asr	r27
     fcc:	a7 95       	ror	r26
     fce:	ba 87       	std	Y+10, r27	; 0x0a
     fd0:	a9 87       	std	Y+9, r26	; 0x09
     fd2:	cd 01       	movw	r24, r26
     fd4:	80 55       	subi	r24, 0x50	; 80
     fd6:	9f 4f       	sbci	r25, 0xFF	; 255
     fd8:	bc 01       	movw	r22, r24
     fda:	0e 94 20 0c 	call	0x1840	; 0x1840 <XMEM_write>
			XMEM_write((int)xPrev & 0x0F, (int)xPrev & 0x0F);		// Set lower column start address
     fde:	c2 01       	movw	r24, r4
     fe0:	8f 70       	andi	r24, 0x0F	; 15
     fe2:	99 27       	eor	r25, r25
     fe4:	bc 01       	movw	r22, r24
     fe6:	0e 94 20 0c 	call	0x1840	; 0x1840 <XMEM_write>
			XMEM_write(0x10 + ((int)xPrev >> 4), 0x10 + ((int)xPrev >> 4));  // Set upper column address
     fea:	c2 01       	movw	r24, r4
     fec:	95 95       	asr	r25
     fee:	87 95       	ror	r24
     ff0:	95 95       	asr	r25
     ff2:	87 95       	ror	r24
     ff4:	95 95       	asr	r25
     ff6:	87 95       	ror	r24
     ff8:	95 95       	asr	r25
     ffa:	87 95       	ror	r24
     ffc:	40 96       	adiw	r24, 0x10	; 16
     ffe:	bc 01       	movw	r22, r24
    1000:	0e 94 20 0c 	call	0x1840	; 0x1840 <XMEM_write>
			
			SRAMvalue = XMEM_read(0x800 + (int)yPrev/8 * 128 + (int)xPrev);	//remove old ball
    1004:	89 85       	ldd	r24, Y+9	; 0x09
    1006:	9a 85       	ldd	r25, Y+10	; 0x0a
    1008:	40 96       	adiw	r24, 0x10	; 16
    100a:	96 95       	lsr	r25
    100c:	98 2f       	mov	r25, r24
    100e:	88 27       	eor	r24, r24
    1010:	97 95       	ror	r25
    1012:	87 95       	ror	r24
    1014:	84 0d       	add	r24, r4
    1016:	95 1d       	adc	r25, r5
    1018:	0e 94 1c 0c 	call	0x1838	; 0x1838 <XMEM_read>
    101c:	99 27       	eor	r25, r25
			XMEM_write(SRAMvalue, 0x200 + SRAMvalue);
    101e:	bc 01       	movw	r22, r24
    1020:	7e 5f       	subi	r23, 0xFE	; 254
    1022:	0e 94 20 0c 	call	0x1840	; 0x1840 <XMEM_write>
			
			x += x_vel;
    1026:	29 89       	ldd	r18, Y+17	; 0x11
    1028:	3a 89       	ldd	r19, Y+18	; 0x12
    102a:	4b 89       	ldd	r20, Y+19	; 0x13
    102c:	5c 89       	ldd	r21, Y+20	; 0x14
    102e:	62 2d       	mov	r22, r2
    1030:	73 2d       	mov	r23, r3
    1032:	8c 2d       	mov	r24, r12
    1034:	9d 2d       	mov	r25, r13
    1036:	0e 94 47 0c 	call	0x188e	; 0x188e <__addsf3>
    103a:	26 2e       	mov	r2, r22
    103c:	37 2e       	mov	r3, r23
    103e:	c8 2e       	mov	r12, r24
    1040:	d9 2e       	mov	r13, r25
			y += y_vel;
    1042:	2d 85       	ldd	r18, Y+13	; 0x0d
    1044:	3e 85       	ldd	r19, Y+14	; 0x0e
    1046:	4f 85       	ldd	r20, Y+15	; 0x0f
    1048:	58 89       	ldd	r21, Y+16	; 0x10
    104a:	69 81       	ldd	r22, Y+1	; 0x01
    104c:	7a 81       	ldd	r23, Y+2	; 0x02
    104e:	8b 81       	ldd	r24, Y+3	; 0x03
    1050:	9c 81       	ldd	r25, Y+4	; 0x04
    1052:	0e 94 47 0c 	call	0x188e	; 0x188e <__addsf3>
    1056:	69 83       	std	Y+1, r22	; 0x01
    1058:	7a 83       	std	Y+2, r23	; 0x02
    105a:	8b 83       	std	Y+3, r24	; 0x03
    105c:	9c 83       	std	Y+4, r25	; 0x04
			if (x <= 0) {
    105e:	20 e0       	ldi	r18, 0x00	; 0
    1060:	30 e0       	ldi	r19, 0x00	; 0
    1062:	a9 01       	movw	r20, r18
    1064:	62 2d       	mov	r22, r2
    1066:	73 2d       	mov	r23, r3
    1068:	8c 2d       	mov	r24, r12
    106a:	9d 2d       	mov	r25, r13
    106c:	0e 94 b3 0c 	call	0x1966	; 0x1966 <__cmpsf2>
    1070:	18 16       	cp	r1, r24
    1072:	3c f0       	brlt	.+14     	; 0x1082 <pong_fast+0x17e>
				leftPoints += 1;
    1074:	2f 89       	ldd	r18, Y+23	; 0x17
    1076:	38 8d       	ldd	r19, Y+24	; 0x18
    1078:	2f 5f       	subi	r18, 0xFF	; 255
    107a:	3f 4f       	sbci	r19, 0xFF	; 255
    107c:	38 8f       	std	Y+24, r19	; 0x18
    107e:	2f 8b       	std	Y+23, r18	; 0x17
				break;
    1080:	c0 c1       	rjmp	.+896    	; 0x1402 <pong_fast+0x4fe>
			}
			else if (x >= 127) {
    1082:	20 e0       	ldi	r18, 0x00	; 0
    1084:	30 e0       	ldi	r19, 0x00	; 0
    1086:	4e ef       	ldi	r20, 0xFE	; 254
    1088:	52 e4       	ldi	r21, 0x42	; 66
    108a:	62 2d       	mov	r22, r2
    108c:	73 2d       	mov	r23, r3
    108e:	8c 2d       	mov	r24, r12
    1090:	9d 2d       	mov	r25, r13
    1092:	0e 94 a0 0d 	call	0x1b40	; 0x1b40 <__gesf2>
    1096:	88 23       	and	r24, r24
    1098:	34 f0       	brlt	.+12     	; 0x10a6 <pong_fast+0x1a2>
				rightPoints += 1;
    109a:	8d 89       	ldd	r24, Y+21	; 0x15
    109c:	9e 89       	ldd	r25, Y+22	; 0x16
    109e:	01 96       	adiw	r24, 0x01	; 1
    10a0:	9e 8b       	std	Y+22, r25	; 0x16
    10a2:	8d 8b       	std	Y+21, r24	; 0x15
				break;
    10a4:	ae c1       	rjmp	.+860    	; 0x1402 <pong_fast+0x4fe>
			}
			else if (x == leftPaddleX + 1 && y <= leftPaddleY + 4 && y >= leftPaddleY - 4) {
    10a6:	20 e0       	ldi	r18, 0x00	; 0
    10a8:	30 e0       	ldi	r19, 0x00	; 0
    10aa:	40 e8       	ldi	r20, 0x80	; 128
    10ac:	50 e4       	ldi	r21, 0x40	; 64
    10ae:	62 2d       	mov	r22, r2
    10b0:	73 2d       	mov	r23, r3
    10b2:	8c 2d       	mov	r24, r12
    10b4:	9d 2d       	mov	r25, r13
    10b6:	0e 94 b3 0c 	call	0x1966	; 0x1966 <__cmpsf2>
    10ba:	81 11       	cpse	r24, r1
    10bc:	4d c0       	rjmp	.+154    	; 0x1158 <pong_fast+0x254>
    10be:	a1 2f       	mov	r26, r17
    10c0:	b0 e0       	ldi	r27, 0x00	; 0
    10c2:	ba 87       	std	Y+10, r27	; 0x0a
    10c4:	a9 87       	std	Y+9, r26	; 0x09
    10c6:	bd 01       	movw	r22, r26
    10c8:	6c 5f       	subi	r22, 0xFC	; 252
    10ca:	7f 4f       	sbci	r23, 0xFF	; 255
    10cc:	07 2e       	mov	r0, r23
    10ce:	00 0c       	add	r0, r0
    10d0:	88 0b       	sbc	r24, r24
    10d2:	99 0b       	sbc	r25, r25
    10d4:	0e 94 f0 0c 	call	0x19e0	; 0x19e0 <__floatsisf>
    10d8:	9b 01       	movw	r18, r22
    10da:	ac 01       	movw	r20, r24
    10dc:	69 81       	ldd	r22, Y+1	; 0x01
    10de:	7a 81       	ldd	r23, Y+2	; 0x02
    10e0:	8b 81       	ldd	r24, Y+3	; 0x03
    10e2:	9c 81       	ldd	r25, Y+4	; 0x04
    10e4:	0e 94 b3 0c 	call	0x1966	; 0x1966 <__cmpsf2>
    10e8:	18 16       	cp	r1, r24
    10ea:	0c f4       	brge	.+2      	; 0x10ee <pong_fast+0x1ea>
    10ec:	8b c0       	rjmp	.+278    	; 0x1204 <pong_fast+0x300>
    10ee:	69 85       	ldd	r22, Y+9	; 0x09
    10f0:	7a 85       	ldd	r23, Y+10	; 0x0a
    10f2:	64 50       	subi	r22, 0x04	; 4
    10f4:	71 09       	sbc	r23, r1
    10f6:	07 2e       	mov	r0, r23
    10f8:	00 0c       	add	r0, r0
    10fa:	88 0b       	sbc	r24, r24
    10fc:	99 0b       	sbc	r25, r25
    10fe:	0e 94 f0 0c 	call	0x19e0	; 0x19e0 <__floatsisf>
    1102:	9b 01       	movw	r18, r22
    1104:	ac 01       	movw	r20, r24
    1106:	69 81       	ldd	r22, Y+1	; 0x01
    1108:	7a 81       	ldd	r23, Y+2	; 0x02
    110a:	8b 81       	ldd	r24, Y+3	; 0x03
    110c:	9c 81       	ldd	r25, Y+4	; 0x04
    110e:	0e 94 a0 0d 	call	0x1b40	; 0x1b40 <__gesf2>
    1112:	88 23       	and	r24, r24
    1114:	0c f4       	brge	.+2      	; 0x1118 <pong_fast+0x214>
    1116:	76 c0       	rjmp	.+236    	; 0x1204 <pong_fast+0x300>
				difference = y - leftPaddleY;
				y_vel = difference / 8.0;
    1118:	29 85       	ldd	r18, Y+9	; 0x09
    111a:	3a 85       	ldd	r19, Y+10	; 0x0a
    111c:	b9 01       	movw	r22, r18
    111e:	33 0f       	add	r19, r19
    1120:	88 0b       	sbc	r24, r24
    1122:	99 0b       	sbc	r25, r25
    1124:	0e 94 f0 0c 	call	0x19e0	; 0x19e0 <__floatsisf>
    1128:	9b 01       	movw	r18, r22
    112a:	ac 01       	movw	r20, r24
    112c:	69 81       	ldd	r22, Y+1	; 0x01
    112e:	7a 81       	ldd	r23, Y+2	; 0x02
    1130:	8b 81       	ldd	r24, Y+3	; 0x03
    1132:	9c 81       	ldd	r25, Y+4	; 0x04
    1134:	0e 94 46 0c 	call	0x188c	; 0x188c <__subsf3>
    1138:	20 e0       	ldi	r18, 0x00	; 0
    113a:	30 e0       	ldi	r19, 0x00	; 0
    113c:	40 e0       	ldi	r20, 0x00	; 0
    113e:	5e e3       	ldi	r21, 0x3E	; 62
    1140:	0e 94 a5 0d 	call	0x1b4a	; 0x1b4a <__mulsf3>
    1144:	6d 87       	std	Y+13, r22	; 0x0d
    1146:	7e 87       	std	Y+14, r23	; 0x0e
    1148:	8f 87       	std	Y+15, r24	; 0x0f
    114a:	98 8b       	std	Y+16, r25	; 0x10
				x_vel = 0.5;
    114c:	19 8a       	std	Y+17, r1	; 0x11
    114e:	1a 8a       	std	Y+18, r1	; 0x12
    1150:	1b 8a       	std	Y+19, r1	; 0x13
    1152:	3f e3       	ldi	r19, 0x3F	; 63
    1154:	3c 8b       	std	Y+20, r19	; 0x14
    1156:	56 c0       	rjmp	.+172    	; 0x1204 <pong_fast+0x300>
			}
			else if (x == rightPaddleX - 1 && y <= rightPaddleY + 4 && y >= rightPaddleY - 4) {
    1158:	20 e0       	ldi	r18, 0x00	; 0
    115a:	30 e0       	ldi	r19, 0x00	; 0
    115c:	46 ef       	ldi	r20, 0xF6	; 246
    115e:	52 e4       	ldi	r21, 0x42	; 66
    1160:	62 2d       	mov	r22, r2
    1162:	73 2d       	mov	r23, r3
    1164:	8c 2d       	mov	r24, r12
    1166:	9d 2d       	mov	r25, r13
    1168:	0e 94 b3 0c 	call	0x1966	; 0x1966 <__cmpsf2>
    116c:	81 11       	cpse	r24, r1
    116e:	4a c0       	rjmp	.+148    	; 0x1204 <pong_fast+0x300>
    1170:	80 2f       	mov	r24, r16
    1172:	90 e0       	ldi	r25, 0x00	; 0
    1174:	9a 87       	std	Y+10, r25	; 0x0a
    1176:	89 87       	std	Y+9, r24	; 0x09
    1178:	bc 01       	movw	r22, r24
    117a:	6c 5f       	subi	r22, 0xFC	; 252
    117c:	7f 4f       	sbci	r23, 0xFF	; 255
    117e:	07 2e       	mov	r0, r23
    1180:	00 0c       	add	r0, r0
    1182:	88 0b       	sbc	r24, r24
    1184:	99 0b       	sbc	r25, r25
    1186:	0e 94 f0 0c 	call	0x19e0	; 0x19e0 <__floatsisf>
    118a:	9b 01       	movw	r18, r22
    118c:	ac 01       	movw	r20, r24
    118e:	69 81       	ldd	r22, Y+1	; 0x01
    1190:	7a 81       	ldd	r23, Y+2	; 0x02
    1192:	8b 81       	ldd	r24, Y+3	; 0x03
    1194:	9c 81       	ldd	r25, Y+4	; 0x04
    1196:	0e 94 b3 0c 	call	0x1966	; 0x1966 <__cmpsf2>
    119a:	18 16       	cp	r1, r24
    119c:	9c f1       	brlt	.+102    	; 0x1204 <pong_fast+0x300>
    119e:	69 85       	ldd	r22, Y+9	; 0x09
    11a0:	7a 85       	ldd	r23, Y+10	; 0x0a
    11a2:	64 50       	subi	r22, 0x04	; 4
    11a4:	71 09       	sbc	r23, r1
    11a6:	07 2e       	mov	r0, r23
    11a8:	00 0c       	add	r0, r0
    11aa:	88 0b       	sbc	r24, r24
    11ac:	99 0b       	sbc	r25, r25
    11ae:	0e 94 f0 0c 	call	0x19e0	; 0x19e0 <__floatsisf>
    11b2:	9b 01       	movw	r18, r22
    11b4:	ac 01       	movw	r20, r24
    11b6:	69 81       	ldd	r22, Y+1	; 0x01
    11b8:	7a 81       	ldd	r23, Y+2	; 0x02
    11ba:	8b 81       	ldd	r24, Y+3	; 0x03
    11bc:	9c 81       	ldd	r25, Y+4	; 0x04
    11be:	0e 94 a0 0d 	call	0x1b40	; 0x1b40 <__gesf2>
    11c2:	88 23       	and	r24, r24
    11c4:	fc f0       	brlt	.+62     	; 0x1204 <pong_fast+0x300>
				difference = y - rightPaddleY;
				y_vel = difference / 8.0;
    11c6:	a9 85       	ldd	r26, Y+9	; 0x09
    11c8:	ba 85       	ldd	r27, Y+10	; 0x0a
    11ca:	bd 01       	movw	r22, r26
    11cc:	bb 0f       	add	r27, r27
    11ce:	88 0b       	sbc	r24, r24
    11d0:	99 0b       	sbc	r25, r25
    11d2:	0e 94 f0 0c 	call	0x19e0	; 0x19e0 <__floatsisf>
    11d6:	9b 01       	movw	r18, r22
    11d8:	ac 01       	movw	r20, r24
    11da:	69 81       	ldd	r22, Y+1	; 0x01
    11dc:	7a 81       	ldd	r23, Y+2	; 0x02
    11de:	8b 81       	ldd	r24, Y+3	; 0x03
    11e0:	9c 81       	ldd	r25, Y+4	; 0x04
    11e2:	0e 94 46 0c 	call	0x188c	; 0x188c <__subsf3>
    11e6:	20 e0       	ldi	r18, 0x00	; 0
    11e8:	30 e0       	ldi	r19, 0x00	; 0
    11ea:	40 e0       	ldi	r20, 0x00	; 0
    11ec:	5e e3       	ldi	r21, 0x3E	; 62
    11ee:	0e 94 a5 0d 	call	0x1b4a	; 0x1b4a <__mulsf3>
    11f2:	6d 87       	std	Y+13, r22	; 0x0d
    11f4:	7e 87       	std	Y+14, r23	; 0x0e
    11f6:	8f 87       	std	Y+15, r24	; 0x0f
    11f8:	98 8b       	std	Y+16, r25	; 0x10
				x_vel = -0.5;
    11fa:	19 8a       	std	Y+17, r1	; 0x11
    11fc:	1a 8a       	std	Y+18, r1	; 0x12
    11fe:	1b 8a       	std	Y+19, r1	; 0x13
    1200:	bf eb       	ldi	r27, 0xBF	; 191
    1202:	bc 8b       	std	Y+20, r27	; 0x14
			}
			if (y <= 0 || y >= 63) {
    1204:	20 e0       	ldi	r18, 0x00	; 0
    1206:	30 e0       	ldi	r19, 0x00	; 0
    1208:	a9 01       	movw	r20, r18
    120a:	69 81       	ldd	r22, Y+1	; 0x01
    120c:	7a 81       	ldd	r23, Y+2	; 0x02
    120e:	8b 81       	ldd	r24, Y+3	; 0x03
    1210:	9c 81       	ldd	r25, Y+4	; 0x04
    1212:	0e 94 b3 0c 	call	0x1966	; 0x1966 <__cmpsf2>
    1216:	18 16       	cp	r1, r24
    1218:	64 f4       	brge	.+24     	; 0x1232 <pong_fast+0x32e>
    121a:	20 e0       	ldi	r18, 0x00	; 0
    121c:	30 e0       	ldi	r19, 0x00	; 0
    121e:	4c e7       	ldi	r20, 0x7C	; 124
    1220:	52 e4       	ldi	r21, 0x42	; 66
    1222:	69 81       	ldd	r22, Y+1	; 0x01
    1224:	7a 81       	ldd	r23, Y+2	; 0x02
    1226:	8b 81       	ldd	r24, Y+3	; 0x03
    1228:	9c 81       	ldd	r25, Y+4	; 0x04
    122a:	0e 94 a0 0d 	call	0x1b40	; 0x1b40 <__gesf2>
    122e:	88 23       	and	r24, r24
    1230:	4c f0       	brlt	.+18     	; 0x1244 <pong_fast+0x340>
				y_vel = -y_vel;
    1232:	8d 85       	ldd	r24, Y+13	; 0x0d
    1234:	9e 85       	ldd	r25, Y+14	; 0x0e
    1236:	af 85       	ldd	r26, Y+15	; 0x0f
    1238:	b8 89       	ldd	r27, Y+16	; 0x10
    123a:	b0 58       	subi	r27, 0x80	; 128
    123c:	8d 87       	std	Y+13, r24	; 0x0d
    123e:	9e 87       	std	Y+14, r25	; 0x0e
    1240:	af 87       	std	Y+15, r26	; 0x0f
    1242:	b8 8b       	std	Y+16, r27	; 0x10
			}
			//OBS FLYTTET
			XMEM_write(0xB0 + (int)y/8, 0xB0 + (int)y/8);	//set page to ball-page
    1244:	69 81       	ldd	r22, Y+1	; 0x01
    1246:	7a 81       	ldd	r23, Y+2	; 0x02
    1248:	8b 81       	ldd	r24, Y+3	; 0x03
    124a:	9c 81       	ldd	r25, Y+4	; 0x04
    124c:	0e 94 b8 0c 	call	0x1970	; 0x1970 <__fixsfsi>
    1250:	69 87       	std	Y+9, r22	; 0x09
    1252:	7a 87       	std	Y+10, r23	; 0x0a
    1254:	8b 87       	std	Y+11, r24	; 0x0b
    1256:	9c 87       	std	Y+12, r25	; 0x0c
    1258:	89 85       	ldd	r24, Y+9	; 0x09
    125a:	9a 85       	ldd	r25, Y+10	; 0x0a
    125c:	9a 8f       	std	Y+26, r25	; 0x1a
    125e:	89 8f       	std	Y+25, r24	; 0x19
    1260:	99 23       	and	r25, r25
    1262:	2c f4       	brge	.+10     	; 0x126e <pong_fast+0x36a>
    1264:	9c 01       	movw	r18, r24
    1266:	29 5f       	subi	r18, 0xF9	; 249
    1268:	3f 4f       	sbci	r19, 0xFF	; 255
    126a:	3a 8f       	std	Y+26, r19	; 0x1a
    126c:	29 8f       	std	Y+25, r18	; 0x19
    126e:	89 8d       	ldd	r24, Y+25	; 0x19
    1270:	9a 8d       	ldd	r25, Y+26	; 0x1a
    1272:	95 95       	asr	r25
    1274:	87 95       	ror	r24
    1276:	95 95       	asr	r25
    1278:	87 95       	ror	r24
    127a:	95 95       	asr	r25
    127c:	87 95       	ror	r24
    127e:	9a 8f       	std	Y+26, r25	; 0x1a
    1280:	89 8f       	std	Y+25, r24	; 0x19
    1282:	80 55       	subi	r24, 0x50	; 80
    1284:	9f 4f       	sbci	r25, 0xFF	; 255
    1286:	bc 01       	movw	r22, r24
    1288:	0e 94 20 0c 	call	0x1840	; 0x1840 <XMEM_write>
			XMEM_write((int)x & 0x0F, (int)x & 0x0F);		// Set lower column start address
    128c:	62 2d       	mov	r22, r2
    128e:	73 2d       	mov	r23, r3
    1290:	8c 2d       	mov	r24, r12
    1292:	9d 2d       	mov	r25, r13
    1294:	0e 94 b8 0c 	call	0x1970	; 0x1970 <__fixsfsi>
    1298:	4b 01       	movw	r8, r22
    129a:	5c 01       	movw	r10, r24
    129c:	cb 01       	movw	r24, r22
    129e:	8f 70       	andi	r24, 0x0F	; 15
    12a0:	99 27       	eor	r25, r25
    12a2:	bc 01       	movw	r22, r24
    12a4:	0e 94 20 0c 	call	0x1840	; 0x1840 <XMEM_write>
			XMEM_write(0x10 + ((int)x >> 4), 0x10 + ((int)x >> 4));  // Set upper column address
    12a8:	c4 01       	movw	r24, r8
    12aa:	95 95       	asr	r25
    12ac:	87 95       	ror	r24
    12ae:	95 95       	asr	r25
    12b0:	87 95       	ror	r24
    12b2:	95 95       	asr	r25
    12b4:	87 95       	ror	r24
    12b6:	95 95       	asr	r25
    12b8:	87 95       	ror	r24
    12ba:	40 96       	adiw	r24, 0x10	; 16
    12bc:	bc 01       	movw	r22, r24
    12be:	0e 94 20 0c 	call	0x1840	; 0x1840 <XMEM_write>
			
			SRAMvalue = XMEM_read(0x800 + (int)y/8 * 128 + (int)x);	//set new ball
    12c2:	89 8d       	ldd	r24, Y+25	; 0x19
    12c4:	9a 8d       	ldd	r25, Y+26	; 0x1a
    12c6:	40 96       	adiw	r24, 0x10	; 16
    12c8:	96 95       	lsr	r25
    12ca:	98 2f       	mov	r25, r24
    12cc:	88 27       	eor	r24, r24
    12ce:	97 95       	ror	r25
    12d0:	87 95       	ror	r24
    12d2:	88 0d       	add	r24, r8
    12d4:	99 1d       	adc	r25, r9
    12d6:	0e 94 1c 0c 	call	0x1838	; 0x1838 <XMEM_read>
    12da:	99 27       	eor	r25, r25
			XMEM_write(SRAMvalue, 0x200 + SRAMvalue);
    12dc:	bc 01       	movw	r22, r24
    12de:	7e 5f       	subi	r23, 0xFE	; 254
    12e0:	0e 94 20 0c 	call	0x1840	; 0x1840 <XMEM_write>
    12e4:	a3 e0       	ldi	r26, 0x03	; 3
    12e6:	b8 e0       	ldi	r27, 0x08	; 8
    12e8:	ba 8f       	std	Y+26, r27	; 0x1a
    12ea:	a9 8f       	std	Y+25, r26	; 0x19
			//OBS FLYTTET
			for (int page = 0; page < 8; page++) {	//clears buffer along paddle-x-axes
				XMEM_write(0, 0x800 + page * 128 + 3);
    12ec:	69 8d       	ldd	r22, Y+25	; 0x19
    12ee:	7a 8d       	ldd	r23, Y+26	; 0x1a
    12f0:	80 e0       	ldi	r24, 0x00	; 0
    12f2:	90 e0       	ldi	r25, 0x00	; 0
    12f4:	0e 94 20 0c 	call	0x1840	; 0x1840 <XMEM_write>
				XMEM_write(0, 0x800 + page * 128 + 124);
    12f8:	69 8d       	ldd	r22, Y+25	; 0x19
    12fa:	7a 8d       	ldd	r23, Y+26	; 0x1a
    12fc:	67 58       	subi	r22, 0x87	; 135
    12fe:	7f 4f       	sbci	r23, 0xFF	; 255
    1300:	80 e0       	ldi	r24, 0x00	; 0
    1302:	90 e0       	ldi	r25, 0x00	; 0
    1304:	0e 94 20 0c 	call	0x1840	; 0x1840 <XMEM_write>
    1308:	29 8d       	ldd	r18, Y+25	; 0x19
    130a:	3a 8d       	ldd	r19, Y+26	; 0x1a
    130c:	20 58       	subi	r18, 0x80	; 128
    130e:	3f 4f       	sbci	r19, 0xFF	; 255
    1310:	3a 8f       	std	Y+26, r19	; 0x1a
    1312:	29 8f       	std	Y+25, r18	; 0x19
			XMEM_write(0x10 + ((int)x >> 4), 0x10 + ((int)x >> 4));  // Set upper column address
			
			SRAMvalue = XMEM_read(0x800 + (int)y/8 * 128 + (int)x);	//set new ball
			XMEM_write(SRAMvalue, 0x200 + SRAMvalue);
			//OBS FLYTTET
			for (int page = 0; page < 8; page++) {	//clears buffer along paddle-x-axes
    1314:	23 30       	cpi	r18, 0x03	; 3
    1316:	3c 40       	sbci	r19, 0x0C	; 12
    1318:	49 f7       	brne	.-46     	; 0x12ec <pong_fast+0x3e8>
    131a:	81 2f       	mov	r24, r17
    131c:	90 e0       	ldi	r25, 0x00	; 0
    131e:	dc 01       	movw	r26, r24
    1320:	14 97       	sbiw	r26, 0x04	; 4
    1322:	ba 8f       	std	Y+26, r27	; 0x1a
    1324:	a9 8f       	std	Y+25, r26	; 0x19
    1326:	7c 01       	movw	r14, r24
    1328:	b5 e0       	ldi	r27, 0x05	; 5
    132a:	eb 0e       	add	r14, r27
    132c:	f1 1c       	adc	r15, r1
				XMEM_write(0, 0x800 + page * 128 + 124);
			}

			for (int i = -4; i < 5; i++) {
				OLED_set_pixel(leftPaddleX, leftPaddleY + i);
				OLED_set_pixel(rightPaddleX, rightPaddleY + i);
    132e:	10 e0       	ldi	r17, 0x00	; 0
    1330:	08 1b       	sub	r16, r24
    1332:	19 0b       	sbc	r17, r25
				XMEM_write(0, 0x800 + page * 128 + 3);
				XMEM_write(0, 0x800 + page * 128 + 124);
			}

			for (int i = -4; i < 5; i++) {
				OLED_set_pixel(leftPaddleX, leftPaddleY + i);
    1334:	69 8d       	ldd	r22, Y+25	; 0x19
    1336:	7a 8d       	ldd	r23, Y+26	; 0x1a
    1338:	83 e0       	ldi	r24, 0x03	; 3
    133a:	90 e0       	ldi	r25, 0x00	; 0
    133c:	0e 94 cb 06 	call	0xd96	; 0xd96 <OLED_set_pixel>
				OLED_set_pixel(rightPaddleX, rightPaddleY + i);
    1340:	69 8d       	ldd	r22, Y+25	; 0x19
    1342:	7a 8d       	ldd	r23, Y+26	; 0x1a
    1344:	60 0f       	add	r22, r16
    1346:	71 1f       	adc	r23, r17
    1348:	8c e7       	ldi	r24, 0x7C	; 124
    134a:	90 e0       	ldi	r25, 0x00	; 0
    134c:	0e 94 cb 06 	call	0xd96	; 0xd96 <OLED_set_pixel>
    1350:	89 8d       	ldd	r24, Y+25	; 0x19
    1352:	9a 8d       	ldd	r25, Y+26	; 0x1a
    1354:	01 96       	adiw	r24, 0x01	; 1
    1356:	9a 8f       	std	Y+26, r25	; 0x1a
    1358:	89 8f       	std	Y+25, r24	; 0x19
			for (int page = 0; page < 8; page++) {	//clears buffer along paddle-x-axes
				XMEM_write(0, 0x800 + page * 128 + 3);
				XMEM_write(0, 0x800 + page * 128 + 124);
			}

			for (int i = -4; i < 5; i++) {
    135a:	8e 15       	cp	r24, r14
    135c:	9f 05       	cpc	r25, r15
    135e:	51 f7       	brne	.-44     	; 0x1334 <pong_fast+0x430>
				OLED_set_pixel(leftPaddleX, leftPaddleY + i);
				OLED_set_pixel(rightPaddleX, rightPaddleY + i);
			}
			OLED_set_pixel((int)x, (int)y);	//sets current ball c
    1360:	69 85       	ldd	r22, Y+9	; 0x09
    1362:	7a 85       	ldd	r23, Y+10	; 0x0a
    1364:	c4 01       	movw	r24, r8
    1366:	0e 94 cb 06 	call	0xd96	; 0xd96 <OLED_set_pixel>
			OLED_reset_pixel((int)xPrev, (int)yPrev);	//clears last ball location
    136a:	6d 81       	ldd	r22, Y+5	; 0x05
    136c:	7e 81       	ldd	r23, Y+6	; 0x06
    136e:	c2 01       	movw	r24, r4
    1370:	0e 94 04 07 	call	0xe08	; 0xe08 <OLED_reset_pixel>
    1374:	a3 e0       	ldi	r26, 0x03	; 3
    1376:	b8 e0       	ldi	r27, 0x08	; 8
    1378:	00 eb       	ldi	r16, 0xB0	; 176
    137a:	10 e0       	ldi	r17, 0x00	; 0
    137c:	be 83       	std	Y+6, r27	; 0x06
    137e:	ad 83       	std	Y+5, r26	; 0x05




			for (int page = 0; page < 8; page++) {	//set OLED along left paddle column
				XMEM_write(0xB0 + page, 0xB0 + page);  // Set command register
    1380:	b8 01       	movw	r22, r16
    1382:	c8 01       	movw	r24, r16
    1384:	0e 94 20 0c 	call	0x1840	; 0x1840 <XMEM_write>

				XMEM_write(lowerColLeftPaddle, lowerColLeftPaddle);		// Set lower column start address
    1388:	63 e0       	ldi	r22, 0x03	; 3
    138a:	70 e0       	ldi	r23, 0x00	; 0
    138c:	83 e0       	ldi	r24, 0x03	; 3
    138e:	90 e0       	ldi	r25, 0x00	; 0
    1390:	0e 94 20 0c 	call	0x1840	; 0x1840 <XMEM_write>
				XMEM_write(0x10 + upperColLeftPaddle, 0x10 + upperColLeftPaddle);  // Set upper column address
    1394:	60 e1       	ldi	r22, 0x10	; 16
    1396:	70 e0       	ldi	r23, 0x00	; 0
    1398:	80 e1       	ldi	r24, 0x10	; 16
    139a:	90 e0       	ldi	r25, 0x00	; 0
    139c:	0e 94 20 0c 	call	0x1840	; 0x1840 <XMEM_write>

				SRAMvalue = XMEM_read(0x800 + page * 128 + leftPaddleX);
    13a0:	8d 81       	ldd	r24, Y+5	; 0x05
    13a2:	9e 81       	ldd	r25, Y+6	; 0x06
    13a4:	0e 94 1c 0c 	call	0x1838	; 0x1838 <XMEM_read>
    13a8:	99 27       	eor	r25, r25
				XMEM_write(SRAMvalue, 0x200 + SRAMvalue);
    13aa:	bc 01       	movw	r22, r24
    13ac:	7e 5f       	subi	r23, 0xFE	; 254
    13ae:	0e 94 20 0c 	call	0x1840	; 0x1840 <XMEM_write>

				XMEM_write(lowerColRightPaddle, lowerColRightPaddle);		//do the same for the right paddle
    13b2:	6c e0       	ldi	r22, 0x0C	; 12
    13b4:	70 e0       	ldi	r23, 0x00	; 0
    13b6:	8c e0       	ldi	r24, 0x0C	; 12
    13b8:	90 e0       	ldi	r25, 0x00	; 0
    13ba:	0e 94 20 0c 	call	0x1840	; 0x1840 <XMEM_write>
				XMEM_write(0x10 + upperColRightPaddle, 0x10 + upperColRightPaddle);
    13be:	67 e1       	ldi	r22, 0x17	; 23
    13c0:	70 e0       	ldi	r23, 0x00	; 0
    13c2:	87 e1       	ldi	r24, 0x17	; 23
    13c4:	90 e0       	ldi	r25, 0x00	; 0
    13c6:	0e 94 20 0c 	call	0x1840	; 0x1840 <XMEM_write>

				SRAMvalue = XMEM_read(0x800 + page * 128 + rightPaddleX);
    13ca:	8d 81       	ldd	r24, Y+5	; 0x05
    13cc:	9e 81       	ldd	r25, Y+6	; 0x06
    13ce:	87 58       	subi	r24, 0x87	; 135
    13d0:	9f 4f       	sbci	r25, 0xFF	; 255
    13d2:	0e 94 1c 0c 	call	0x1838	; 0x1838 <XMEM_read>
    13d6:	99 27       	eor	r25, r25
				XMEM_write(SRAMvalue, 0x200 + SRAMvalue);
    13d8:	bc 01       	movw	r22, r24
    13da:	7e 5f       	subi	r23, 0xFE	; 254
    13dc:	0e 94 20 0c 	call	0x1840	; 0x1840 <XMEM_write>
    13e0:	0f 5f       	subi	r16, 0xFF	; 255
    13e2:	1f 4f       	sbci	r17, 0xFF	; 255
    13e4:	2d 81       	ldd	r18, Y+5	; 0x05
    13e6:	3e 81       	ldd	r19, Y+6	; 0x06
    13e8:	20 58       	subi	r18, 0x80	; 128
    13ea:	3f 4f       	sbci	r19, 0xFF	; 255
    13ec:	3e 83       	std	Y+6, r19	; 0x06
    13ee:	2d 83       	std	Y+5, r18	; 0x05
			OLED_reset_pixel((int)xPrev, (int)yPrev);	//clears last ball location




			for (int page = 0; page < 8; page++) {	//set OLED along left paddle column
    13f0:	23 30       	cpi	r18, 0x03	; 3
    13f2:	3c 40       	sbci	r19, 0x0C	; 12
    13f4:	29 f6       	brne	.-118    	; 0x1380 <pong_fast+0x47c>
				SRAMvalue = XMEM_read(0x800 + page * 128 + rightPaddleX);
				XMEM_write(SRAMvalue, 0x200 + SRAMvalue);

			}
			//printf("Time elapsed: %d", TIM8_ReadTCNT0());
			while (TIM8_ReadTCNT2() < 70){
    13f6:	0e 94 f6 0b 	call	0x17ec	; 0x17ec <TIM8_ReadTCNT2>
    13fa:	86 34       	cpi	r24, 0x46	; 70
    13fc:	91 05       	cpc	r25, r1
    13fe:	dc f3       	brlt	.-10     	; 0x13f6 <pong_fast+0x4f2>
    1400:	af cd       	rjmp	.-1186   	; 0xf60 <pong_fast+0x5c>
				
			}
		}
		
		OLED_clearAll();
    1402:	0e 94 72 07 	call	0xee4	; 0xee4 <OLED_clearAll>
		OLED_print_char(rightPoints + 48, 128 * 3 + 50);
    1406:	62 eb       	ldi	r22, 0xB2	; 178
    1408:	71 e0       	ldi	r23, 0x01	; 1
    140a:	8d 89       	ldd	r24, Y+21	; 0x15
    140c:	80 5d       	subi	r24, 0xD0	; 208
    140e:	0e 94 87 06 	call	0xd0e	; 0xd0e <OLED_print_char>
		OLED_print_char(leftPoints + 48, 128 * 3 + 70);
    1412:	66 ec       	ldi	r22, 0xC6	; 198
    1414:	71 e0       	ldi	r23, 0x01	; 1
    1416:	8f 89       	ldd	r24, Y+23	; 0x17
    1418:	80 5d       	subi	r24, 0xD0	; 208
    141a:	0e 94 87 06 	call	0xd0e	; 0xd0e <OLED_print_char>
		OLED_refresh();
    141e:	0e 94 3e 07 	call	0xe7c	; 0xe7c <OLED_refresh>
	#else
		//round up by default
		__ticks_dc = (uint32_t)(ceil(fabs(__tmp)));
	#endif

	__builtin_avr_delay_cycles(__ticks_dc);
    1422:	9f ef       	ldi	r25, 0xFF	; 255
    1424:	af ef       	ldi	r26, 0xFF	; 255
    1426:	bd e1       	ldi	r27, 0x1D	; 29
    1428:	91 50       	subi	r25, 0x01	; 1
    142a:	a0 40       	sbci	r26, 0x00	; 0
    142c:	b0 40       	sbci	r27, 0x00	; 0
    142e:	e1 f7       	brne	.-8      	; 0x1428 <pong_fast+0x524>
    1430:	00 c0       	rjmp	.+0      	; 0x1432 <pong_fast+0x52e>
    1432:	00 00       	nop
		_delay_ms(2000);
		OLED_clearAll();
    1434:	0e 94 72 07 	call	0xee4	; 0xee4 <OLED_clearAll>
		OLED_refresh();
    1438:	0e 94 3e 07 	call	0xe7c	; 0xe7c <OLED_refresh>
	}
    143c:	75 cd       	rjmp	.-1302   	; 0xf28 <pong_fast+0x24>

0000143e <pong_slow>:
}

void pong_slow() {
    143e:	cf 93       	push	r28
    1440:	df 93       	push	r29
    1442:	cd b7       	in	r28, 0x3d	; 61
    1444:	de b7       	in	r29, 0x3e	; 62
    1446:	2e 97       	sbiw	r28, 0x0e	; 14
    1448:	0f b6       	in	r0, 0x3f	; 63
    144a:	f8 94       	cli
    144c:	de bf       	out	0x3e, r29	; 62
    144e:	0f be       	out	0x3f, r0	; 63
    1450:	cd bf       	out	0x3d, r28	; 61
	float rightPaddleY = 31;
	float leftPaddleY = 31;
	float leftPaddleX = 3;
	float rightPaddleX = 124;
	int rightPoints = 0;
	int leftPoints = 0;
    1452:	1c 86       	std	Y+12, r1	; 0x0c
    1454:	1b 86       	std	Y+11, r1	; 0x0b
	float y_vel = 0;
	float rightPaddleY = 31;
	float leftPaddleY = 31;
	float leftPaddleX = 3;
	float rightPaddleX = 124;
	int rightPoints = 0;
    1456:	1a 86       	std	Y+10, r1	; 0x0a
    1458:	19 86       	std	Y+9, r1	; 0x09
	int leftPoints = 0;
	float difference = 0;
	while (1) {
		float x = 63;
		float y = 31;
    145a:	51 2c       	mov	r5, r1
    145c:	41 2c       	mov	r4, r1
    145e:	0f 2e       	mov	r0, r31
    1460:	f8 ef       	ldi	r31, 0xF8	; 248
    1462:	3f 2e       	mov	r3, r31
    1464:	f0 2d       	mov	r31, r0
    1466:	0f 2e       	mov	r0, r31
    1468:	f1 e4       	ldi	r31, 0x41	; 65
    146a:	2f 2e       	mov	r2, r31
    146c:	f0 2d       	mov	r31, r0
	float rightPaddleX = 124;
	int rightPoints = 0;
	int leftPoints = 0;
	float difference = 0;
	while (1) {
		float x = 63;
    146e:	10 e0       	ldi	r17, 0x00	; 0
    1470:	00 e0       	ldi	r16, 0x00	; 0
    1472:	0f 2e       	mov	r0, r31
    1474:	fc e7       	ldi	r31, 0x7C	; 124
    1476:	7f 2e       	mov	r7, r31
    1478:	f0 2d       	mov	r31, r0
    147a:	0f 2e       	mov	r0, r31
    147c:	f2 e4       	ldi	r31, 0x42	; 66
    147e:	6f 2e       	mov	r6, r31
    1480:	f0 2d       	mov	r31, r0
		float y = 31;
		x_vel = 1;
		y_vel = 0;
    1482:	81 2c       	mov	r8, r1
    1484:	91 2c       	mov	r9, r1
    1486:	54 01       	movw	r10, r8
	int leftPoints = 0;
	float difference = 0;
	while (1) {
		float x = 63;
		float y = 31;
		x_vel = 1;
    1488:	1d 82       	std	Y+5, r1	; 0x05
    148a:	1e 82       	std	Y+6, r1	; 0x06
    148c:	20 e8       	ldi	r18, 0x80	; 128
    148e:	2f 83       	std	Y+7, r18	; 0x07
    1490:	3f e3       	ldi	r19, 0x3F	; 63
    1492:	38 87       	std	Y+8, r19	; 0x08
    1494:	59 82       	std	Y+1, r5	; 0x01
    1496:	4a 82       	std	Y+2, r4	; 0x02
    1498:	3b 82       	std	Y+3, r3	; 0x03
    149a:	30 2e       	mov	r3, r16
    149c:	07 2d       	mov	r16, r7
    149e:	2c 82       	std	Y+4, r2	; 0x04
    14a0:	21 2e       	mov	r2, r17
    14a2:	16 2d       	mov	r17, r6
		y_vel = 0;
		while (1){
			TIM8_WriteTCNT0(0);
    14a4:	80 e0       	ldi	r24, 0x00	; 0
    14a6:	0e 94 e3 0b 	call	0x17c6	; 0x17c6 <TIM8_WriteTCNT0>
			rightPaddleY = (ADC_slider_right())/4.0;
    14aa:	0e 94 0f 02 	call	0x41e	; 0x41e <ADC_slider_right>
    14ae:	68 2f       	mov	r22, r24
    14b0:	70 e0       	ldi	r23, 0x00	; 0
    14b2:	80 e0       	ldi	r24, 0x00	; 0
    14b4:	90 e0       	ldi	r25, 0x00	; 0
    14b6:	0e 94 f0 0c 	call	0x19e0	; 0x19e0 <__floatsisf>
    14ba:	20 e0       	ldi	r18, 0x00	; 0
    14bc:	30 e0       	ldi	r19, 0x00	; 0
    14be:	40 e8       	ldi	r20, 0x80	; 128
    14c0:	5e e3       	ldi	r21, 0x3E	; 62
    14c2:	0e 94 a5 0d 	call	0x1b4a	; 0x1b4a <__mulsf3>
    14c6:	2b 01       	movw	r4, r22
    14c8:	3c 01       	movw	r6, r24
			leftPaddleY = (ADC_slider_left())/4.0;
    14ca:	0e 94 fb 01 	call	0x3f6	; 0x3f6 <ADC_slider_left>
    14ce:	68 2f       	mov	r22, r24
    14d0:	70 e0       	ldi	r23, 0x00	; 0
    14d2:	80 e0       	ldi	r24, 0x00	; 0
    14d4:	90 e0       	ldi	r25, 0x00	; 0
    14d6:	0e 94 f0 0c 	call	0x19e0	; 0x19e0 <__floatsisf>
    14da:	20 e0       	ldi	r18, 0x00	; 0
    14dc:	30 e0       	ldi	r19, 0x00	; 0
    14de:	40 e8       	ldi	r20, 0x80	; 128
    14e0:	5e e3       	ldi	r21, 0x3E	; 62
    14e2:	0e 94 a5 0d 	call	0x1b4a	; 0x1b4a <__mulsf3>
    14e6:	6b 01       	movw	r12, r22
    14e8:	7c 01       	movw	r14, r24
			x += x_vel;
    14ea:	2d 81       	ldd	r18, Y+5	; 0x05
    14ec:	3e 81       	ldd	r19, Y+6	; 0x06
    14ee:	4f 81       	ldd	r20, Y+7	; 0x07
    14f0:	58 85       	ldd	r21, Y+8	; 0x08
    14f2:	62 2d       	mov	r22, r2
    14f4:	73 2d       	mov	r23, r3
    14f6:	80 2f       	mov	r24, r16
    14f8:	91 2f       	mov	r25, r17
    14fa:	0e 94 47 0c 	call	0x188e	; 0x188e <__addsf3>
    14fe:	26 2e       	mov	r2, r22
    1500:	37 2e       	mov	r3, r23
    1502:	08 2f       	mov	r16, r24
    1504:	19 2f       	mov	r17, r25
			y += y_vel;
    1506:	a5 01       	movw	r20, r10
    1508:	94 01       	movw	r18, r8
    150a:	69 81       	ldd	r22, Y+1	; 0x01
    150c:	7a 81       	ldd	r23, Y+2	; 0x02
    150e:	8b 81       	ldd	r24, Y+3	; 0x03
    1510:	9c 81       	ldd	r25, Y+4	; 0x04
    1512:	0e 94 47 0c 	call	0x188e	; 0x188e <__addsf3>
    1516:	69 83       	std	Y+1, r22	; 0x01
    1518:	7a 83       	std	Y+2, r23	; 0x02
    151a:	8b 83       	std	Y+3, r24	; 0x03
    151c:	9c 83       	std	Y+4, r25	; 0x04
			if (x <= 0) {
    151e:	20 e0       	ldi	r18, 0x00	; 0
    1520:	30 e0       	ldi	r19, 0x00	; 0
    1522:	a9 01       	movw	r20, r18
    1524:	62 2d       	mov	r22, r2
    1526:	73 2d       	mov	r23, r3
    1528:	80 2f       	mov	r24, r16
    152a:	91 2f       	mov	r25, r17
    152c:	0e 94 b3 0c 	call	0x1966	; 0x1966 <__cmpsf2>
    1530:	18 16       	cp	r1, r24
    1532:	34 f0       	brlt	.+12     	; 0x1540 <pong_slow+0x102>
				leftPoints += 1;
    1534:	8b 85       	ldd	r24, Y+11	; 0x0b
    1536:	9c 85       	ldd	r25, Y+12	; 0x0c
    1538:	01 96       	adiw	r24, 0x01	; 1
    153a:	9c 87       	std	Y+12, r25	; 0x0c
    153c:	8b 87       	std	Y+11, r24	; 0x0b
				break;
    153e:	08 c1       	rjmp	.+528    	; 0x1750 <pong_slow+0x312>
			}
			else if (x >= 127) {
    1540:	20 e0       	ldi	r18, 0x00	; 0
    1542:	30 e0       	ldi	r19, 0x00	; 0
    1544:	4e ef       	ldi	r20, 0xFE	; 254
    1546:	52 e4       	ldi	r21, 0x42	; 66
    1548:	62 2d       	mov	r22, r2
    154a:	73 2d       	mov	r23, r3
    154c:	80 2f       	mov	r24, r16
    154e:	91 2f       	mov	r25, r17
    1550:	0e 94 a0 0d 	call	0x1b40	; 0x1b40 <__gesf2>
    1554:	88 23       	and	r24, r24
    1556:	3c f0       	brlt	.+14     	; 0x1566 <pong_slow+0x128>
				rightPoints += 1;
    1558:	29 85       	ldd	r18, Y+9	; 0x09
    155a:	3a 85       	ldd	r19, Y+10	; 0x0a
    155c:	2f 5f       	subi	r18, 0xFF	; 255
    155e:	3f 4f       	sbci	r19, 0xFF	; 255
    1560:	3a 87       	std	Y+10, r19	; 0x0a
    1562:	29 87       	std	Y+9, r18	; 0x09
				break;
    1564:	f5 c0       	rjmp	.+490    	; 0x1750 <pong_slow+0x312>
			}
			else if (x == leftPaddleX + 1 && y <= leftPaddleY + 4 && y >= leftPaddleY - 4){
    1566:	20 e0       	ldi	r18, 0x00	; 0
    1568:	30 e0       	ldi	r19, 0x00	; 0
    156a:	40 e8       	ldi	r20, 0x80	; 128
    156c:	50 e4       	ldi	r21, 0x40	; 64
    156e:	62 2d       	mov	r22, r2
    1570:	73 2d       	mov	r23, r3
    1572:	80 2f       	mov	r24, r16
    1574:	91 2f       	mov	r25, r17
    1576:	0e 94 b3 0c 	call	0x1966	; 0x1966 <__cmpsf2>
    157a:	81 11       	cpse	r24, r1
    157c:	3c c0       	rjmp	.+120    	; 0x15f6 <pong_slow+0x1b8>
    157e:	20 e0       	ldi	r18, 0x00	; 0
    1580:	30 e0       	ldi	r19, 0x00	; 0
    1582:	40 e8       	ldi	r20, 0x80	; 128
    1584:	50 e4       	ldi	r21, 0x40	; 64
    1586:	c7 01       	movw	r24, r14
    1588:	b6 01       	movw	r22, r12
    158a:	0e 94 47 0c 	call	0x188e	; 0x188e <__addsf3>
    158e:	9b 01       	movw	r18, r22
    1590:	ac 01       	movw	r20, r24
    1592:	69 81       	ldd	r22, Y+1	; 0x01
    1594:	7a 81       	ldd	r23, Y+2	; 0x02
    1596:	8b 81       	ldd	r24, Y+3	; 0x03
    1598:	9c 81       	ldd	r25, Y+4	; 0x04
    159a:	0e 94 b3 0c 	call	0x1966	; 0x1966 <__cmpsf2>
    159e:	18 16       	cp	r1, r24
    15a0:	0c f4       	brge	.+2      	; 0x15a4 <pong_slow+0x166>
    15a2:	6e c0       	rjmp	.+220    	; 0x1680 <pong_slow+0x242>
    15a4:	20 e0       	ldi	r18, 0x00	; 0
    15a6:	30 e0       	ldi	r19, 0x00	; 0
    15a8:	40 e8       	ldi	r20, 0x80	; 128
    15aa:	50 e4       	ldi	r21, 0x40	; 64
    15ac:	c7 01       	movw	r24, r14
    15ae:	b6 01       	movw	r22, r12
    15b0:	0e 94 46 0c 	call	0x188c	; 0x188c <__subsf3>
    15b4:	9b 01       	movw	r18, r22
    15b6:	ac 01       	movw	r20, r24
    15b8:	69 81       	ldd	r22, Y+1	; 0x01
    15ba:	7a 81       	ldd	r23, Y+2	; 0x02
    15bc:	8b 81       	ldd	r24, Y+3	; 0x03
    15be:	9c 81       	ldd	r25, Y+4	; 0x04
    15c0:	0e 94 a0 0d 	call	0x1b40	; 0x1b40 <__gesf2>
    15c4:	88 23       	and	r24, r24
    15c6:	0c f4       	brge	.+2      	; 0x15ca <pong_slow+0x18c>
    15c8:	5b c0       	rjmp	.+182    	; 0x1680 <pong_slow+0x242>
				difference = y - leftPaddleY;
				y_vel = difference / 8.0;
    15ca:	a7 01       	movw	r20, r14
    15cc:	96 01       	movw	r18, r12
    15ce:	69 81       	ldd	r22, Y+1	; 0x01
    15d0:	7a 81       	ldd	r23, Y+2	; 0x02
    15d2:	8b 81       	ldd	r24, Y+3	; 0x03
    15d4:	9c 81       	ldd	r25, Y+4	; 0x04
    15d6:	0e 94 46 0c 	call	0x188c	; 0x188c <__subsf3>
    15da:	20 e0       	ldi	r18, 0x00	; 0
    15dc:	30 e0       	ldi	r19, 0x00	; 0
    15de:	40 e0       	ldi	r20, 0x00	; 0
    15e0:	5e e3       	ldi	r21, 0x3E	; 62
    15e2:	0e 94 a5 0d 	call	0x1b4a	; 0x1b4a <__mulsf3>
    15e6:	4b 01       	movw	r8, r22
    15e8:	5c 01       	movw	r10, r24
				x_vel = 0.5;
    15ea:	1d 82       	std	Y+5, r1	; 0x05
    15ec:	1e 82       	std	Y+6, r1	; 0x06
    15ee:	1f 82       	std	Y+7, r1	; 0x07
    15f0:	3f e3       	ldi	r19, 0x3F	; 63
    15f2:	38 87       	std	Y+8, r19	; 0x08
    15f4:	45 c0       	rjmp	.+138    	; 0x1680 <pong_slow+0x242>
			}
			else if (x == rightPaddleX - 1 && y <= rightPaddleY + 4 && y >= rightPaddleY - 4){
    15f6:	20 e0       	ldi	r18, 0x00	; 0
    15f8:	30 e0       	ldi	r19, 0x00	; 0
    15fa:	46 ef       	ldi	r20, 0xF6	; 246
    15fc:	52 e4       	ldi	r21, 0x42	; 66
    15fe:	62 2d       	mov	r22, r2
    1600:	73 2d       	mov	r23, r3
    1602:	80 2f       	mov	r24, r16
    1604:	91 2f       	mov	r25, r17
    1606:	0e 94 b3 0c 	call	0x1966	; 0x1966 <__cmpsf2>
    160a:	81 11       	cpse	r24, r1
    160c:	39 c0       	rjmp	.+114    	; 0x1680 <pong_slow+0x242>
    160e:	20 e0       	ldi	r18, 0x00	; 0
    1610:	30 e0       	ldi	r19, 0x00	; 0
    1612:	40 e8       	ldi	r20, 0x80	; 128
    1614:	50 e4       	ldi	r21, 0x40	; 64
    1616:	c3 01       	movw	r24, r6
    1618:	b2 01       	movw	r22, r4
    161a:	0e 94 47 0c 	call	0x188e	; 0x188e <__addsf3>
    161e:	9b 01       	movw	r18, r22
    1620:	ac 01       	movw	r20, r24
    1622:	69 81       	ldd	r22, Y+1	; 0x01
    1624:	7a 81       	ldd	r23, Y+2	; 0x02
    1626:	8b 81       	ldd	r24, Y+3	; 0x03
    1628:	9c 81       	ldd	r25, Y+4	; 0x04
    162a:	0e 94 b3 0c 	call	0x1966	; 0x1966 <__cmpsf2>
    162e:	18 16       	cp	r1, r24
    1630:	3c f1       	brlt	.+78     	; 0x1680 <pong_slow+0x242>
    1632:	20 e0       	ldi	r18, 0x00	; 0
    1634:	30 e0       	ldi	r19, 0x00	; 0
    1636:	40 e8       	ldi	r20, 0x80	; 128
    1638:	50 e4       	ldi	r21, 0x40	; 64
    163a:	c3 01       	movw	r24, r6
    163c:	b2 01       	movw	r22, r4
    163e:	0e 94 46 0c 	call	0x188c	; 0x188c <__subsf3>
    1642:	9b 01       	movw	r18, r22
    1644:	ac 01       	movw	r20, r24
    1646:	69 81       	ldd	r22, Y+1	; 0x01
    1648:	7a 81       	ldd	r23, Y+2	; 0x02
    164a:	8b 81       	ldd	r24, Y+3	; 0x03
    164c:	9c 81       	ldd	r25, Y+4	; 0x04
    164e:	0e 94 a0 0d 	call	0x1b40	; 0x1b40 <__gesf2>
    1652:	88 23       	and	r24, r24
    1654:	ac f0       	brlt	.+42     	; 0x1680 <pong_slow+0x242>
				difference = y - rightPaddleY;
				y_vel = difference / 8.0;
    1656:	a3 01       	movw	r20, r6
    1658:	92 01       	movw	r18, r4
    165a:	69 81       	ldd	r22, Y+1	; 0x01
    165c:	7a 81       	ldd	r23, Y+2	; 0x02
    165e:	8b 81       	ldd	r24, Y+3	; 0x03
    1660:	9c 81       	ldd	r25, Y+4	; 0x04
    1662:	0e 94 46 0c 	call	0x188c	; 0x188c <__subsf3>
    1666:	20 e0       	ldi	r18, 0x00	; 0
    1668:	30 e0       	ldi	r19, 0x00	; 0
    166a:	40 e0       	ldi	r20, 0x00	; 0
    166c:	5e e3       	ldi	r21, 0x3E	; 62
    166e:	0e 94 a5 0d 	call	0x1b4a	; 0x1b4a <__mulsf3>
    1672:	4b 01       	movw	r8, r22
    1674:	5c 01       	movw	r10, r24
				x_vel = -0.5;
    1676:	1d 82       	std	Y+5, r1	; 0x05
    1678:	1e 82       	std	Y+6, r1	; 0x06
    167a:	1f 82       	std	Y+7, r1	; 0x07
    167c:	8f eb       	ldi	r24, 0xBF	; 191
    167e:	88 87       	std	Y+8, r24	; 0x08
			}
			if (y <= 0 || y >= 63) {
    1680:	20 e0       	ldi	r18, 0x00	; 0
    1682:	30 e0       	ldi	r19, 0x00	; 0
    1684:	a9 01       	movw	r20, r18
    1686:	69 81       	ldd	r22, Y+1	; 0x01
    1688:	7a 81       	ldd	r23, Y+2	; 0x02
    168a:	8b 81       	ldd	r24, Y+3	; 0x03
    168c:	9c 81       	ldd	r25, Y+4	; 0x04
    168e:	0e 94 b3 0c 	call	0x1966	; 0x1966 <__cmpsf2>
    1692:	18 16       	cp	r1, r24
    1694:	64 f4       	brge	.+24     	; 0x16ae <pong_slow+0x270>
    1696:	20 e0       	ldi	r18, 0x00	; 0
    1698:	30 e0       	ldi	r19, 0x00	; 0
    169a:	4c e7       	ldi	r20, 0x7C	; 124
    169c:	52 e4       	ldi	r21, 0x42	; 66
    169e:	69 81       	ldd	r22, Y+1	; 0x01
    16a0:	7a 81       	ldd	r23, Y+2	; 0x02
    16a2:	8b 81       	ldd	r24, Y+3	; 0x03
    16a4:	9c 81       	ldd	r25, Y+4	; 0x04
    16a6:	0e 94 a0 0d 	call	0x1b40	; 0x1b40 <__gesf2>
    16aa:	88 23       	and	r24, r24
    16ac:	24 f0       	brlt	.+8      	; 0x16b6 <pong_slow+0x278>
				y_vel = -y_vel;
    16ae:	b7 fa       	bst	r11, 7
    16b0:	b0 94       	com	r11
    16b2:	b7 f8       	bld	r11, 7
    16b4:	b0 94       	com	r11
			}
			OLED_clearAll();
    16b6:	0e 94 72 07 	call	0xee4	; 0xee4 <OLED_clearAll>
			for (int i = -4; i < 5; i++){
    16ba:	2c ef       	ldi	r18, 0xFC	; 252
    16bc:	3f ef       	ldi	r19, 0xFF	; 255
    16be:	3e 87       	std	Y+14, r19	; 0x0e
    16c0:	2d 87       	std	Y+13, r18	; 0x0d
				OLED_set_pixel((int)leftPaddleX, (int)leftPaddleY + i);
    16c2:	c7 01       	movw	r24, r14
    16c4:	b6 01       	movw	r22, r12
    16c6:	0e 94 b8 0c 	call	0x1970	; 0x1970 <__fixsfsi>
    16ca:	2d 85       	ldd	r18, Y+13	; 0x0d
    16cc:	3e 85       	ldd	r19, Y+14	; 0x0e
    16ce:	62 0f       	add	r22, r18
    16d0:	73 1f       	adc	r23, r19
    16d2:	83 e0       	ldi	r24, 0x03	; 3
    16d4:	90 e0       	ldi	r25, 0x00	; 0
    16d6:	0e 94 cb 06 	call	0xd96	; 0xd96 <OLED_set_pixel>
				OLED_set_pixel((int)rightPaddleX, (int)rightPaddleY + i);
    16da:	c3 01       	movw	r24, r6
    16dc:	b2 01       	movw	r22, r4
    16de:	0e 94 b8 0c 	call	0x1970	; 0x1970 <__fixsfsi>
    16e2:	2d 85       	ldd	r18, Y+13	; 0x0d
    16e4:	3e 85       	ldd	r19, Y+14	; 0x0e
    16e6:	62 0f       	add	r22, r18
    16e8:	73 1f       	adc	r23, r19
    16ea:	8c e7       	ldi	r24, 0x7C	; 124
    16ec:	90 e0       	ldi	r25, 0x00	; 0
    16ee:	0e 94 cb 06 	call	0xd96	; 0xd96 <OLED_set_pixel>
			}
			if (y <= 0 || y >= 63) {
				y_vel = -y_vel;
			}
			OLED_clearAll();
			for (int i = -4; i < 5; i++){
    16f2:	8d 85       	ldd	r24, Y+13	; 0x0d
    16f4:	9e 85       	ldd	r25, Y+14	; 0x0e
    16f6:	01 96       	adiw	r24, 0x01	; 1
    16f8:	9e 87       	std	Y+14, r25	; 0x0e
    16fa:	8d 87       	std	Y+13, r24	; 0x0d
    16fc:	05 97       	sbiw	r24, 0x05	; 5
    16fe:	09 f7       	brne	.-62     	; 0x16c2 <pong_slow+0x284>
				OLED_set_pixel((int)leftPaddleX, (int)leftPaddleY + i);
				OLED_set_pixel((int)rightPaddleX, (int)rightPaddleY + i);
			}
			OLED_set_pixel((int)x, (int)y);
    1700:	69 81       	ldd	r22, Y+1	; 0x01
    1702:	7a 81       	ldd	r23, Y+2	; 0x02
    1704:	8b 81       	ldd	r24, Y+3	; 0x03
    1706:	9c 81       	ldd	r25, Y+4	; 0x04
    1708:	0e 94 b8 0c 	call	0x1970	; 0x1970 <__fixsfsi>
    170c:	6b 01       	movw	r12, r22
    170e:	7c 01       	movw	r14, r24
    1710:	62 2d       	mov	r22, r2
    1712:	73 2d       	mov	r23, r3
    1714:	80 2f       	mov	r24, r16
    1716:	91 2f       	mov	r25, r17
    1718:	0e 94 b8 0c 	call	0x1970	; 0x1970 <__fixsfsi>
    171c:	dc 01       	movw	r26, r24
    171e:	cb 01       	movw	r24, r22
    1720:	b6 01       	movw	r22, r12
    1722:	0e 94 cb 06 	call	0xd96	; 0xd96 <OLED_set_pixel>
			TIM8_WriteTCNT0(0);
    1726:	80 e0       	ldi	r24, 0x00	; 0
    1728:	0e 94 e3 0b 	call	0x17c6	; 0x17c6 <TIM8_WriteTCNT0>
			OLED_refresh();
    172c:	0e 94 3e 07 	call	0xe7c	; 0xe7c <OLED_refresh>
			printf("Time elapsed: %d", 256 + TIM8_ReadTCNT0());
    1730:	0e 94 e9 0b 	call	0x17d2	; 0x17d2 <TIM8_ReadTCNT0>
    1734:	93 95       	inc	r25
    1736:	9f 93       	push	r25
    1738:	8f 93       	push	r24
    173a:	20 e0       	ldi	r18, 0x00	; 0
    173c:	32 e0       	ldi	r19, 0x02	; 2
    173e:	3f 93       	push	r19
    1740:	2f 93       	push	r18
    1742:	0e 94 5d 0e 	call	0x1cba	; 0x1cba <printf>
			
		}
    1746:	0f 90       	pop	r0
    1748:	0f 90       	pop	r0
    174a:	0f 90       	pop	r0
    174c:	0f 90       	pop	r0
    174e:	aa ce       	rjmp	.-684    	; 0x14a4 <pong_slow+0x66>
		OLED_clearAll();
    1750:	0e 94 72 07 	call	0xee4	; 0xee4 <OLED_clearAll>
		OLED_print_char(rightPoints + 48, 128 * 3 + 50);
    1754:	62 eb       	ldi	r22, 0xB2	; 178
    1756:	71 e0       	ldi	r23, 0x01	; 1
    1758:	89 85       	ldd	r24, Y+9	; 0x09
    175a:	80 5d       	subi	r24, 0xD0	; 208
    175c:	0e 94 87 06 	call	0xd0e	; 0xd0e <OLED_print_char>
		OLED_print_char(leftPoints + 48, 128 * 3 + 70);
    1760:	66 ec       	ldi	r22, 0xC6	; 198
    1762:	71 e0       	ldi	r23, 0x01	; 1
    1764:	8b 85       	ldd	r24, Y+11	; 0x0b
    1766:	80 5d       	subi	r24, 0xD0	; 208
    1768:	0e 94 87 06 	call	0xd0e	; 0xd0e <OLED_print_char>
		OLED_refresh();
    176c:	0e 94 3e 07 	call	0xe7c	; 0xe7c <OLED_refresh>
    1770:	9f ef       	ldi	r25, 0xFF	; 255
    1772:	2f ef       	ldi	r18, 0xFF	; 255
    1774:	3d e1       	ldi	r19, 0x1D	; 29
    1776:	91 50       	subi	r25, 0x01	; 1
    1778:	20 40       	sbci	r18, 0x00	; 0
    177a:	30 40       	sbci	r19, 0x00	; 0
    177c:	e1 f7       	brne	.-8      	; 0x1776 <pong_slow+0x338>
    177e:	00 c0       	rjmp	.+0      	; 0x1780 <pong_slow+0x342>
    1780:	00 00       	nop
		_delay_ms(2000);
		OLED_clearAll();
    1782:	0e 94 72 07 	call	0xee4	; 0xee4 <OLED_clearAll>
		OLED_refresh();
    1786:	0e 94 3e 07 	call	0xe7c	; 0xe7c <OLED_refresh>
	}
    178a:	67 ce       	rjmp	.-818    	; 0x145a <pong_slow+0x1c>

0000178c <SPI_MasterInit>:
    178c:	87 b3       	in	r24, 0x17	; 23
    178e:	80 6b       	ori	r24, 0xB0	; 176
    1790:	87 bb       	out	0x17, r24	; 23
    1792:	be 98       	cbi	0x17, 6	; 23
    1794:	8d b1       	in	r24, 0x0d	; 13
    1796:	80 65       	ori	r24, 0x50	; 80
    1798:	8d b9       	out	0x0d, r24	; 13
    179a:	6d 98       	cbi	0x0d, 5	; 13
    179c:	6b 98       	cbi	0x0d, 3	; 13
    179e:	6a 98       	cbi	0x0d, 2	; 13
    17a0:	68 98       	cbi	0x0d, 0	; 13
    17a2:	69 98       	cbi	0x0d, 1	; 13
    17a4:	08 95       	ret

000017a6 <SPI_transmit>:
    17a6:	8f b9       	out	0x0f, r24	; 15
    17a8:	77 9b       	sbis	0x0e, 7	; 14
    17aa:	fe cf       	rjmp	.-4      	; 0x17a8 <SPI_transmit+0x2>
    17ac:	08 95       	ret

000017ae <SPI_read>:
    17ae:	8f ef       	ldi	r24, 0xFF	; 255
    17b0:	8f b9       	out	0x0f, r24	; 15
    17b2:	77 9b       	sbis	0x0e, 7	; 14
    17b4:	fe cf       	rjmp	.-4      	; 0x17b2 <SPI_read+0x4>
    17b6:	8f b1       	in	r24, 0x0f	; 15
    17b8:	08 95       	ret

000017ba <timer_0division1024Init>:
#define F_CPU 4915200

void timer_0division1024Init(void) {

	// start the timer
	TCCR0 = 0b0000101;	//normal mode
    17ba:	85 e0       	ldi	r24, 0x05	; 5
    17bc:	83 bf       	out	0x33, r24	; 51
    17be:	08 95       	ret

000017c0 <timer_2division1024Init>:
}

void timer_2division1024Init(void) {

	// start the timer
	TCCR2 = 0b00000111;
    17c0:	87 e0       	ldi	r24, 0x07	; 7
    17c2:	87 bd       	out	0x27, r24	; 39
    17c4:	08 95       	ret

000017c6 <TIM8_WriteTCNT0>:
void TIM8_WriteTCNT0(uint8_t i)
{
	unsigned char sreg;
	//uint8_t i;
	/* Save Global Interrupt Flag */
	sreg = SREG;
    17c6:	9f b7       	in	r25, 0x3f	; 63
	/* Disable interrupts */
	cli();
    17c8:	f8 94       	cli
	/* Set TCNTn to i */
	TCNT0 = i;
    17ca:	82 bf       	out	0x32, r24	; 50
	/* Restore Global Interrupt Flag */
	SREG = sreg;
    17cc:	9f bf       	out	0x3f, r25	; 63
	sei();
    17ce:	78 94       	sei
    17d0:	08 95       	ret

000017d2 <TIM8_ReadTCNT0>:
unsigned int TIM8_ReadTCNT0(void)
{
	unsigned char sreg;
	uint8_t i;
	/* Save Global Interrupt Flag */
	sreg = SREG;
    17d2:	9f b7       	in	r25, 0x3f	; 63
	/* Disable interrupts */
	cli();
    17d4:	f8 94       	cli
	/* Read TCNTn into i */
	i = TCNT0;
    17d6:	82 b7       	in	r24, 0x32	; 50
	/* Restore Global Interrupt Flag */
	SREG = sreg;
    17d8:	9f bf       	out	0x3f, r25	; 63
	sei();
    17da:	78 94       	sei
	return i;
}
    17dc:	90 e0       	ldi	r25, 0x00	; 0
    17de:	08 95       	ret

000017e0 <TIM8_WriteTCNT2>:
void TIM8_WriteTCNT2(uint8_t i)
{
	unsigned char sreg;
	//uint8_t i;
	/* Save Global Interrupt Flag */
	sreg = SREG;
    17e0:	9f b7       	in	r25, 0x3f	; 63
	/* Disable interrupts */
	cli();
    17e2:	f8 94       	cli
	/* Set TCNTn to i */
	TCNT2 = i;
    17e4:	83 bd       	out	0x23, r24	; 35
	/* Restore Global Interrupt Flag */
	SREG = sreg;
    17e6:	9f bf       	out	0x3f, r25	; 63
	sei();
    17e8:	78 94       	sei
    17ea:	08 95       	ret

000017ec <TIM8_ReadTCNT2>:
unsigned int TIM8_ReadTCNT2(void)
{
	unsigned char sreg;
	uint8_t i;
	/* Save Global Interrupt Flag */
	sreg = SREG;
    17ec:	9f b7       	in	r25, 0x3f	; 63
	/* Disable interrupts */
	cli();
    17ee:	f8 94       	cli
	/* Read TCNTn into i */
	i = TCNT2;
    17f0:	83 b5       	in	r24, 0x23	; 35
	/* Restore Global Interrupt Flag */
	SREG = sreg;
    17f2:	9f bf       	out	0x3f, r25	; 63
	sei();
    17f4:	78 94       	sei
	return i;
    17f6:	90 e0       	ldi	r25, 0x00	; 0
    17f8:	08 95       	ret

000017fa <UART_transmit>:
    17fa:	5d 9b       	sbis	0x0b, 5	; 11
    17fc:	fe cf       	rjmp	.-4      	; 0x17fa <UART_transmit>
    17fe:	8c b9       	out	0x0c, r24	; 12
    1800:	08 95       	ret

00001802 <UART_receive>:
    1802:	5f 9b       	sbis	0x0b, 7	; 11
    1804:	fe cf       	rjmp	.-4      	; 0x1802 <UART_receive>
    1806:	8c b1       	in	r24, 0x0c	; 12
    1808:	08 95       	ret

0000180a <UART_init>:
    180a:	90 bd       	out	0x20, r25	; 32
    180c:	89 b9       	out	0x09, r24	; 9
    180e:	88 e1       	ldi	r24, 0x18	; 24
    1810:	8a b9       	out	0x0a, r24	; 10
    1812:	8e e8       	ldi	r24, 0x8E	; 142
    1814:	80 bd       	out	0x20, r24	; 32
    1816:	61 e0       	ldi	r22, 0x01	; 1
    1818:	7c e0       	ldi	r23, 0x0C	; 12
    181a:	8d ef       	ldi	r24, 0xFD	; 253
    181c:	9b e0       	ldi	r25, 0x0B	; 11
    181e:	0e 94 12 0e 	call	0x1c24	; 0x1c24 <fdevopen>
    1822:	08 95       	ret

00001824 <XMEM_init>:
    1824:	85 b7       	in	r24, 0x35	; 53
    1826:	80 68       	ori	r24, 0x80	; 128
    1828:	85 bf       	out	0x35, r24	; 53
    182a:	80 b7       	in	r24, 0x30	; 48
    182c:	80 62       	ori	r24, 0x20	; 32
    182e:	80 bf       	out	0x30, r24	; 48
    1830:	80 b7       	in	r24, 0x30	; 48
    1832:	87 7e       	andi	r24, 0xE7	; 231
    1834:	80 bf       	out	0x30, r24	; 48
    1836:	08 95       	ret

00001838 <XMEM_read>:
    1838:	90 5f       	subi	r25, 0xF0	; 240
    183a:	fc 01       	movw	r30, r24
    183c:	80 81       	ld	r24, Z
    183e:	08 95       	ret

00001840 <XMEM_write>:
    1840:	fb 01       	movw	r30, r22
    1842:	f0 5f       	subi	r31, 0xF0	; 240
    1844:	80 83       	st	Z, r24
    1846:	08 95       	ret

00001848 <main>:
#define MYUBRR 31


int main(void)
{
	INTERRUPT_init();
    1848:	0e 94 77 03 	call	0x6ee	; 0x6ee <INTERRUPT_init>
	UART_init(MYUBRR);
    184c:	8f e1       	ldi	r24, 0x1F	; 31
    184e:	90 e0       	ldi	r25, 0x00	; 0
    1850:	0e 94 05 0c 	call	0x180a	; 0x180a <UART_init>
	XMEM_init();
    1854:	0e 94 12 0c 	call	0x1824	; 0x1824 <XMEM_init>
	//btn_init();
	printf("\nStarting.... \n\r");
    1858:	81 e1       	ldi	r24, 0x11	; 17
    185a:	92 e0       	ldi	r25, 0x02	; 2
    185c:	9f 93       	push	r25
    185e:	8f 93       	push	r24
    1860:	0e 94 5d 0e 	call	0x1cba	; 0x1cba <printf>
	timer_0division1024Init();
    1864:	0e 94 dd 0b 	call	0x17ba	; 0x17ba <timer_0division1024Init>
	timer_2division1024Init();
    1868:	0e 94 e0 0b 	call	0x17c0	; 0x17c0 <timer_2division1024Init>
	CAN_init(MODE_NORMAL);
    186c:	80 e0       	ldi	r24, 0x00	; 0
    186e:	0e 94 23 02 	call	0x446	; 0x446 <CAN_init>
	
	
	MENU_start();
    1872:	0e 94 86 05 	call	0xb0c	; 0xb0c <MENU_start>
    1876:	0f 90       	pop	r0
    1878:	0f 90       	pop	r0
	
	
	while(1) {
		// Testing CAN
	
		send_joystick_pos();
    187a:	0e 94 3d 03 	call	0x67a	; 0x67a <send_joystick_pos>
    187e:	8f ef       	ldi	r24, 0xFF	; 255
    1880:	9f e2       	ldi	r25, 0x2F	; 47
    1882:	01 97       	sbiw	r24, 0x01	; 1
    1884:	f1 f7       	brne	.-4      	; 0x1882 <main+0x3a>
    1886:	00 c0       	rjmp	.+0      	; 0x1888 <main+0x40>
    1888:	00 00       	nop
    188a:	f7 cf       	rjmp	.-18     	; 0x187a <main+0x32>

0000188c <__subsf3>:
    188c:	50 58       	subi	r21, 0x80	; 128

0000188e <__addsf3>:
    188e:	bb 27       	eor	r27, r27
    1890:	aa 27       	eor	r26, r26
    1892:	0e 94 5e 0c 	call	0x18bc	; 0x18bc <__addsf3x>
    1896:	0c 94 66 0d 	jmp	0x1acc	; 0x1acc <__fp_round>
    189a:	0e 94 58 0d 	call	0x1ab0	; 0x1ab0 <__fp_pscA>
    189e:	38 f0       	brcs	.+14     	; 0x18ae <__addsf3+0x20>
    18a0:	0e 94 5f 0d 	call	0x1abe	; 0x1abe <__fp_pscB>
    18a4:	20 f0       	brcs	.+8      	; 0x18ae <__addsf3+0x20>
    18a6:	39 f4       	brne	.+14     	; 0x18b6 <__addsf3+0x28>
    18a8:	9f 3f       	cpi	r25, 0xFF	; 255
    18aa:	19 f4       	brne	.+6      	; 0x18b2 <__addsf3+0x24>
    18ac:	26 f4       	brtc	.+8      	; 0x18b6 <__addsf3+0x28>
    18ae:	0c 94 55 0d 	jmp	0x1aaa	; 0x1aaa <__fp_nan>
    18b2:	0e f4       	brtc	.+2      	; 0x18b6 <__addsf3+0x28>
    18b4:	e0 95       	com	r30
    18b6:	e7 fb       	bst	r30, 7
    18b8:	0c 94 4f 0d 	jmp	0x1a9e	; 0x1a9e <__fp_inf>

000018bc <__addsf3x>:
    18bc:	e9 2f       	mov	r30, r25
    18be:	0e 94 77 0d 	call	0x1aee	; 0x1aee <__fp_split3>
    18c2:	58 f3       	brcs	.-42     	; 0x189a <__addsf3+0xc>
    18c4:	ba 17       	cp	r27, r26
    18c6:	62 07       	cpc	r22, r18
    18c8:	73 07       	cpc	r23, r19
    18ca:	84 07       	cpc	r24, r20
    18cc:	95 07       	cpc	r25, r21
    18ce:	20 f0       	brcs	.+8      	; 0x18d8 <__addsf3x+0x1c>
    18d0:	79 f4       	brne	.+30     	; 0x18f0 <__addsf3x+0x34>
    18d2:	a6 f5       	brtc	.+104    	; 0x193c <__addsf3x+0x80>
    18d4:	0c 94 99 0d 	jmp	0x1b32	; 0x1b32 <__fp_zero>
    18d8:	0e f4       	brtc	.+2      	; 0x18dc <__addsf3x+0x20>
    18da:	e0 95       	com	r30
    18dc:	0b 2e       	mov	r0, r27
    18de:	ba 2f       	mov	r27, r26
    18e0:	a0 2d       	mov	r26, r0
    18e2:	0b 01       	movw	r0, r22
    18e4:	b9 01       	movw	r22, r18
    18e6:	90 01       	movw	r18, r0
    18e8:	0c 01       	movw	r0, r24
    18ea:	ca 01       	movw	r24, r20
    18ec:	a0 01       	movw	r20, r0
    18ee:	11 24       	eor	r1, r1
    18f0:	ff 27       	eor	r31, r31
    18f2:	59 1b       	sub	r21, r25
    18f4:	99 f0       	breq	.+38     	; 0x191c <__addsf3x+0x60>
    18f6:	59 3f       	cpi	r21, 0xF9	; 249
    18f8:	50 f4       	brcc	.+20     	; 0x190e <__addsf3x+0x52>
    18fa:	50 3e       	cpi	r21, 0xE0	; 224
    18fc:	68 f1       	brcs	.+90     	; 0x1958 <__addsf3x+0x9c>
    18fe:	1a 16       	cp	r1, r26
    1900:	f0 40       	sbci	r31, 0x00	; 0
    1902:	a2 2f       	mov	r26, r18
    1904:	23 2f       	mov	r18, r19
    1906:	34 2f       	mov	r19, r20
    1908:	44 27       	eor	r20, r20
    190a:	58 5f       	subi	r21, 0xF8	; 248
    190c:	f3 cf       	rjmp	.-26     	; 0x18f4 <__addsf3x+0x38>
    190e:	46 95       	lsr	r20
    1910:	37 95       	ror	r19
    1912:	27 95       	ror	r18
    1914:	a7 95       	ror	r26
    1916:	f0 40       	sbci	r31, 0x00	; 0
    1918:	53 95       	inc	r21
    191a:	c9 f7       	brne	.-14     	; 0x190e <__addsf3x+0x52>
    191c:	7e f4       	brtc	.+30     	; 0x193c <__addsf3x+0x80>
    191e:	1f 16       	cp	r1, r31
    1920:	ba 0b       	sbc	r27, r26
    1922:	62 0b       	sbc	r22, r18
    1924:	73 0b       	sbc	r23, r19
    1926:	84 0b       	sbc	r24, r20
    1928:	ba f0       	brmi	.+46     	; 0x1958 <__addsf3x+0x9c>
    192a:	91 50       	subi	r25, 0x01	; 1
    192c:	a1 f0       	breq	.+40     	; 0x1956 <__addsf3x+0x9a>
    192e:	ff 0f       	add	r31, r31
    1930:	bb 1f       	adc	r27, r27
    1932:	66 1f       	adc	r22, r22
    1934:	77 1f       	adc	r23, r23
    1936:	88 1f       	adc	r24, r24
    1938:	c2 f7       	brpl	.-16     	; 0x192a <__addsf3x+0x6e>
    193a:	0e c0       	rjmp	.+28     	; 0x1958 <__addsf3x+0x9c>
    193c:	ba 0f       	add	r27, r26
    193e:	62 1f       	adc	r22, r18
    1940:	73 1f       	adc	r23, r19
    1942:	84 1f       	adc	r24, r20
    1944:	48 f4       	brcc	.+18     	; 0x1958 <__addsf3x+0x9c>
    1946:	87 95       	ror	r24
    1948:	77 95       	ror	r23
    194a:	67 95       	ror	r22
    194c:	b7 95       	ror	r27
    194e:	f7 95       	ror	r31
    1950:	9e 3f       	cpi	r25, 0xFE	; 254
    1952:	08 f0       	brcs	.+2      	; 0x1956 <__addsf3x+0x9a>
    1954:	b0 cf       	rjmp	.-160    	; 0x18b6 <__addsf3+0x28>
    1956:	93 95       	inc	r25
    1958:	88 0f       	add	r24, r24
    195a:	08 f0       	brcs	.+2      	; 0x195e <__addsf3x+0xa2>
    195c:	99 27       	eor	r25, r25
    195e:	ee 0f       	add	r30, r30
    1960:	97 95       	ror	r25
    1962:	87 95       	ror	r24
    1964:	08 95       	ret

00001966 <__cmpsf2>:
    1966:	0e 94 2b 0d 	call	0x1a56	; 0x1a56 <__fp_cmp>
    196a:	08 f4       	brcc	.+2      	; 0x196e <__cmpsf2+0x8>
    196c:	81 e0       	ldi	r24, 0x01	; 1
    196e:	08 95       	ret

00001970 <__fixsfsi>:
    1970:	0e 94 bf 0c 	call	0x197e	; 0x197e <__fixunssfsi>
    1974:	68 94       	set
    1976:	b1 11       	cpse	r27, r1
    1978:	0c 94 9a 0d 	jmp	0x1b34	; 0x1b34 <__fp_szero>
    197c:	08 95       	ret

0000197e <__fixunssfsi>:
    197e:	0e 94 7f 0d 	call	0x1afe	; 0x1afe <__fp_splitA>
    1982:	88 f0       	brcs	.+34     	; 0x19a6 <__fixunssfsi+0x28>
    1984:	9f 57       	subi	r25, 0x7F	; 127
    1986:	98 f0       	brcs	.+38     	; 0x19ae <__fixunssfsi+0x30>
    1988:	b9 2f       	mov	r27, r25
    198a:	99 27       	eor	r25, r25
    198c:	b7 51       	subi	r27, 0x17	; 23
    198e:	b0 f0       	brcs	.+44     	; 0x19bc <__fixunssfsi+0x3e>
    1990:	e1 f0       	breq	.+56     	; 0x19ca <__fixunssfsi+0x4c>
    1992:	66 0f       	add	r22, r22
    1994:	77 1f       	adc	r23, r23
    1996:	88 1f       	adc	r24, r24
    1998:	99 1f       	adc	r25, r25
    199a:	1a f0       	brmi	.+6      	; 0x19a2 <__fixunssfsi+0x24>
    199c:	ba 95       	dec	r27
    199e:	c9 f7       	brne	.-14     	; 0x1992 <__fixunssfsi+0x14>
    19a0:	14 c0       	rjmp	.+40     	; 0x19ca <__fixunssfsi+0x4c>
    19a2:	b1 30       	cpi	r27, 0x01	; 1
    19a4:	91 f0       	breq	.+36     	; 0x19ca <__fixunssfsi+0x4c>
    19a6:	0e 94 99 0d 	call	0x1b32	; 0x1b32 <__fp_zero>
    19aa:	b1 e0       	ldi	r27, 0x01	; 1
    19ac:	08 95       	ret
    19ae:	0c 94 99 0d 	jmp	0x1b32	; 0x1b32 <__fp_zero>
    19b2:	67 2f       	mov	r22, r23
    19b4:	78 2f       	mov	r23, r24
    19b6:	88 27       	eor	r24, r24
    19b8:	b8 5f       	subi	r27, 0xF8	; 248
    19ba:	39 f0       	breq	.+14     	; 0x19ca <__fixunssfsi+0x4c>
    19bc:	b9 3f       	cpi	r27, 0xF9	; 249
    19be:	cc f3       	brlt	.-14     	; 0x19b2 <__fixunssfsi+0x34>
    19c0:	86 95       	lsr	r24
    19c2:	77 95       	ror	r23
    19c4:	67 95       	ror	r22
    19c6:	b3 95       	inc	r27
    19c8:	d9 f7       	brne	.-10     	; 0x19c0 <__fixunssfsi+0x42>
    19ca:	3e f4       	brtc	.+14     	; 0x19da <__fixunssfsi+0x5c>
    19cc:	90 95       	com	r25
    19ce:	80 95       	com	r24
    19d0:	70 95       	com	r23
    19d2:	61 95       	neg	r22
    19d4:	7f 4f       	sbci	r23, 0xFF	; 255
    19d6:	8f 4f       	sbci	r24, 0xFF	; 255
    19d8:	9f 4f       	sbci	r25, 0xFF	; 255
    19da:	08 95       	ret

000019dc <__floatunsisf>:
    19dc:	e8 94       	clt
    19de:	09 c0       	rjmp	.+18     	; 0x19f2 <__floatsisf+0x12>

000019e0 <__floatsisf>:
    19e0:	97 fb       	bst	r25, 7
    19e2:	3e f4       	brtc	.+14     	; 0x19f2 <__floatsisf+0x12>
    19e4:	90 95       	com	r25
    19e6:	80 95       	com	r24
    19e8:	70 95       	com	r23
    19ea:	61 95       	neg	r22
    19ec:	7f 4f       	sbci	r23, 0xFF	; 255
    19ee:	8f 4f       	sbci	r24, 0xFF	; 255
    19f0:	9f 4f       	sbci	r25, 0xFF	; 255
    19f2:	99 23       	and	r25, r25
    19f4:	a9 f0       	breq	.+42     	; 0x1a20 <__floatsisf+0x40>
    19f6:	f9 2f       	mov	r31, r25
    19f8:	96 e9       	ldi	r25, 0x96	; 150
    19fa:	bb 27       	eor	r27, r27
    19fc:	93 95       	inc	r25
    19fe:	f6 95       	lsr	r31
    1a00:	87 95       	ror	r24
    1a02:	77 95       	ror	r23
    1a04:	67 95       	ror	r22
    1a06:	b7 95       	ror	r27
    1a08:	f1 11       	cpse	r31, r1
    1a0a:	f8 cf       	rjmp	.-16     	; 0x19fc <__floatsisf+0x1c>
    1a0c:	fa f4       	brpl	.+62     	; 0x1a4c <__floatsisf+0x6c>
    1a0e:	bb 0f       	add	r27, r27
    1a10:	11 f4       	brne	.+4      	; 0x1a16 <__floatsisf+0x36>
    1a12:	60 ff       	sbrs	r22, 0
    1a14:	1b c0       	rjmp	.+54     	; 0x1a4c <__floatsisf+0x6c>
    1a16:	6f 5f       	subi	r22, 0xFF	; 255
    1a18:	7f 4f       	sbci	r23, 0xFF	; 255
    1a1a:	8f 4f       	sbci	r24, 0xFF	; 255
    1a1c:	9f 4f       	sbci	r25, 0xFF	; 255
    1a1e:	16 c0       	rjmp	.+44     	; 0x1a4c <__floatsisf+0x6c>
    1a20:	88 23       	and	r24, r24
    1a22:	11 f0       	breq	.+4      	; 0x1a28 <__floatsisf+0x48>
    1a24:	96 e9       	ldi	r25, 0x96	; 150
    1a26:	11 c0       	rjmp	.+34     	; 0x1a4a <__floatsisf+0x6a>
    1a28:	77 23       	and	r23, r23
    1a2a:	21 f0       	breq	.+8      	; 0x1a34 <__floatsisf+0x54>
    1a2c:	9e e8       	ldi	r25, 0x8E	; 142
    1a2e:	87 2f       	mov	r24, r23
    1a30:	76 2f       	mov	r23, r22
    1a32:	05 c0       	rjmp	.+10     	; 0x1a3e <__floatsisf+0x5e>
    1a34:	66 23       	and	r22, r22
    1a36:	71 f0       	breq	.+28     	; 0x1a54 <__floatsisf+0x74>
    1a38:	96 e8       	ldi	r25, 0x86	; 134
    1a3a:	86 2f       	mov	r24, r22
    1a3c:	70 e0       	ldi	r23, 0x00	; 0
    1a3e:	60 e0       	ldi	r22, 0x00	; 0
    1a40:	2a f0       	brmi	.+10     	; 0x1a4c <__floatsisf+0x6c>
    1a42:	9a 95       	dec	r25
    1a44:	66 0f       	add	r22, r22
    1a46:	77 1f       	adc	r23, r23
    1a48:	88 1f       	adc	r24, r24
    1a4a:	da f7       	brpl	.-10     	; 0x1a42 <__floatsisf+0x62>
    1a4c:	88 0f       	add	r24, r24
    1a4e:	96 95       	lsr	r25
    1a50:	87 95       	ror	r24
    1a52:	97 f9       	bld	r25, 7
    1a54:	08 95       	ret

00001a56 <__fp_cmp>:
    1a56:	99 0f       	add	r25, r25
    1a58:	00 08       	sbc	r0, r0
    1a5a:	55 0f       	add	r21, r21
    1a5c:	aa 0b       	sbc	r26, r26
    1a5e:	e0 e8       	ldi	r30, 0x80	; 128
    1a60:	fe ef       	ldi	r31, 0xFE	; 254
    1a62:	16 16       	cp	r1, r22
    1a64:	17 06       	cpc	r1, r23
    1a66:	e8 07       	cpc	r30, r24
    1a68:	f9 07       	cpc	r31, r25
    1a6a:	c0 f0       	brcs	.+48     	; 0x1a9c <__fp_cmp+0x46>
    1a6c:	12 16       	cp	r1, r18
    1a6e:	13 06       	cpc	r1, r19
    1a70:	e4 07       	cpc	r30, r20
    1a72:	f5 07       	cpc	r31, r21
    1a74:	98 f0       	brcs	.+38     	; 0x1a9c <__fp_cmp+0x46>
    1a76:	62 1b       	sub	r22, r18
    1a78:	73 0b       	sbc	r23, r19
    1a7a:	84 0b       	sbc	r24, r20
    1a7c:	95 0b       	sbc	r25, r21
    1a7e:	39 f4       	brne	.+14     	; 0x1a8e <__fp_cmp+0x38>
    1a80:	0a 26       	eor	r0, r26
    1a82:	61 f0       	breq	.+24     	; 0x1a9c <__fp_cmp+0x46>
    1a84:	23 2b       	or	r18, r19
    1a86:	24 2b       	or	r18, r20
    1a88:	25 2b       	or	r18, r21
    1a8a:	21 f4       	brne	.+8      	; 0x1a94 <__fp_cmp+0x3e>
    1a8c:	08 95       	ret
    1a8e:	0a 26       	eor	r0, r26
    1a90:	09 f4       	brne	.+2      	; 0x1a94 <__fp_cmp+0x3e>
    1a92:	a1 40       	sbci	r26, 0x01	; 1
    1a94:	a6 95       	lsr	r26
    1a96:	8f ef       	ldi	r24, 0xFF	; 255
    1a98:	81 1d       	adc	r24, r1
    1a9a:	81 1d       	adc	r24, r1
    1a9c:	08 95       	ret

00001a9e <__fp_inf>:
    1a9e:	97 f9       	bld	r25, 7
    1aa0:	9f 67       	ori	r25, 0x7F	; 127
    1aa2:	80 e8       	ldi	r24, 0x80	; 128
    1aa4:	70 e0       	ldi	r23, 0x00	; 0
    1aa6:	60 e0       	ldi	r22, 0x00	; 0
    1aa8:	08 95       	ret

00001aaa <__fp_nan>:
    1aaa:	9f ef       	ldi	r25, 0xFF	; 255
    1aac:	80 ec       	ldi	r24, 0xC0	; 192
    1aae:	08 95       	ret

00001ab0 <__fp_pscA>:
    1ab0:	00 24       	eor	r0, r0
    1ab2:	0a 94       	dec	r0
    1ab4:	16 16       	cp	r1, r22
    1ab6:	17 06       	cpc	r1, r23
    1ab8:	18 06       	cpc	r1, r24
    1aba:	09 06       	cpc	r0, r25
    1abc:	08 95       	ret

00001abe <__fp_pscB>:
    1abe:	00 24       	eor	r0, r0
    1ac0:	0a 94       	dec	r0
    1ac2:	12 16       	cp	r1, r18
    1ac4:	13 06       	cpc	r1, r19
    1ac6:	14 06       	cpc	r1, r20
    1ac8:	05 06       	cpc	r0, r21
    1aca:	08 95       	ret

00001acc <__fp_round>:
    1acc:	09 2e       	mov	r0, r25
    1ace:	03 94       	inc	r0
    1ad0:	00 0c       	add	r0, r0
    1ad2:	11 f4       	brne	.+4      	; 0x1ad8 <__fp_round+0xc>
    1ad4:	88 23       	and	r24, r24
    1ad6:	52 f0       	brmi	.+20     	; 0x1aec <__fp_round+0x20>
    1ad8:	bb 0f       	add	r27, r27
    1ada:	40 f4       	brcc	.+16     	; 0x1aec <__fp_round+0x20>
    1adc:	bf 2b       	or	r27, r31
    1ade:	11 f4       	brne	.+4      	; 0x1ae4 <__fp_round+0x18>
    1ae0:	60 ff       	sbrs	r22, 0
    1ae2:	04 c0       	rjmp	.+8      	; 0x1aec <__fp_round+0x20>
    1ae4:	6f 5f       	subi	r22, 0xFF	; 255
    1ae6:	7f 4f       	sbci	r23, 0xFF	; 255
    1ae8:	8f 4f       	sbci	r24, 0xFF	; 255
    1aea:	9f 4f       	sbci	r25, 0xFF	; 255
    1aec:	08 95       	ret

00001aee <__fp_split3>:
    1aee:	57 fd       	sbrc	r21, 7
    1af0:	90 58       	subi	r25, 0x80	; 128
    1af2:	44 0f       	add	r20, r20
    1af4:	55 1f       	adc	r21, r21
    1af6:	59 f0       	breq	.+22     	; 0x1b0e <__fp_splitA+0x10>
    1af8:	5f 3f       	cpi	r21, 0xFF	; 255
    1afa:	71 f0       	breq	.+28     	; 0x1b18 <__fp_splitA+0x1a>
    1afc:	47 95       	ror	r20

00001afe <__fp_splitA>:
    1afe:	88 0f       	add	r24, r24
    1b00:	97 fb       	bst	r25, 7
    1b02:	99 1f       	adc	r25, r25
    1b04:	61 f0       	breq	.+24     	; 0x1b1e <__fp_splitA+0x20>
    1b06:	9f 3f       	cpi	r25, 0xFF	; 255
    1b08:	79 f0       	breq	.+30     	; 0x1b28 <__fp_splitA+0x2a>
    1b0a:	87 95       	ror	r24
    1b0c:	08 95       	ret
    1b0e:	12 16       	cp	r1, r18
    1b10:	13 06       	cpc	r1, r19
    1b12:	14 06       	cpc	r1, r20
    1b14:	55 1f       	adc	r21, r21
    1b16:	f2 cf       	rjmp	.-28     	; 0x1afc <__fp_split3+0xe>
    1b18:	46 95       	lsr	r20
    1b1a:	f1 df       	rcall	.-30     	; 0x1afe <__fp_splitA>
    1b1c:	08 c0       	rjmp	.+16     	; 0x1b2e <__fp_splitA+0x30>
    1b1e:	16 16       	cp	r1, r22
    1b20:	17 06       	cpc	r1, r23
    1b22:	18 06       	cpc	r1, r24
    1b24:	99 1f       	adc	r25, r25
    1b26:	f1 cf       	rjmp	.-30     	; 0x1b0a <__fp_splitA+0xc>
    1b28:	86 95       	lsr	r24
    1b2a:	71 05       	cpc	r23, r1
    1b2c:	61 05       	cpc	r22, r1
    1b2e:	08 94       	sec
    1b30:	08 95       	ret

00001b32 <__fp_zero>:
    1b32:	e8 94       	clt

00001b34 <__fp_szero>:
    1b34:	bb 27       	eor	r27, r27
    1b36:	66 27       	eor	r22, r22
    1b38:	77 27       	eor	r23, r23
    1b3a:	cb 01       	movw	r24, r22
    1b3c:	97 f9       	bld	r25, 7
    1b3e:	08 95       	ret

00001b40 <__gesf2>:
    1b40:	0e 94 2b 0d 	call	0x1a56	; 0x1a56 <__fp_cmp>
    1b44:	08 f4       	brcc	.+2      	; 0x1b48 <__gesf2+0x8>
    1b46:	8f ef       	ldi	r24, 0xFF	; 255
    1b48:	08 95       	ret

00001b4a <__mulsf3>:
    1b4a:	0e 94 b8 0d 	call	0x1b70	; 0x1b70 <__mulsf3x>
    1b4e:	0c 94 66 0d 	jmp	0x1acc	; 0x1acc <__fp_round>
    1b52:	0e 94 58 0d 	call	0x1ab0	; 0x1ab0 <__fp_pscA>
    1b56:	38 f0       	brcs	.+14     	; 0x1b66 <__mulsf3+0x1c>
    1b58:	0e 94 5f 0d 	call	0x1abe	; 0x1abe <__fp_pscB>
    1b5c:	20 f0       	brcs	.+8      	; 0x1b66 <__mulsf3+0x1c>
    1b5e:	95 23       	and	r25, r21
    1b60:	11 f0       	breq	.+4      	; 0x1b66 <__mulsf3+0x1c>
    1b62:	0c 94 4f 0d 	jmp	0x1a9e	; 0x1a9e <__fp_inf>
    1b66:	0c 94 55 0d 	jmp	0x1aaa	; 0x1aaa <__fp_nan>
    1b6a:	11 24       	eor	r1, r1
    1b6c:	0c 94 9a 0d 	jmp	0x1b34	; 0x1b34 <__fp_szero>

00001b70 <__mulsf3x>:
    1b70:	0e 94 77 0d 	call	0x1aee	; 0x1aee <__fp_split3>
    1b74:	70 f3       	brcs	.-36     	; 0x1b52 <__mulsf3+0x8>

00001b76 <__mulsf3_pse>:
    1b76:	95 9f       	mul	r25, r21
    1b78:	c1 f3       	breq	.-16     	; 0x1b6a <__mulsf3+0x20>
    1b7a:	95 0f       	add	r25, r21
    1b7c:	50 e0       	ldi	r21, 0x00	; 0
    1b7e:	55 1f       	adc	r21, r21
    1b80:	62 9f       	mul	r22, r18
    1b82:	f0 01       	movw	r30, r0
    1b84:	72 9f       	mul	r23, r18
    1b86:	bb 27       	eor	r27, r27
    1b88:	f0 0d       	add	r31, r0
    1b8a:	b1 1d       	adc	r27, r1
    1b8c:	63 9f       	mul	r22, r19
    1b8e:	aa 27       	eor	r26, r26
    1b90:	f0 0d       	add	r31, r0
    1b92:	b1 1d       	adc	r27, r1
    1b94:	aa 1f       	adc	r26, r26
    1b96:	64 9f       	mul	r22, r20
    1b98:	66 27       	eor	r22, r22
    1b9a:	b0 0d       	add	r27, r0
    1b9c:	a1 1d       	adc	r26, r1
    1b9e:	66 1f       	adc	r22, r22
    1ba0:	82 9f       	mul	r24, r18
    1ba2:	22 27       	eor	r18, r18
    1ba4:	b0 0d       	add	r27, r0
    1ba6:	a1 1d       	adc	r26, r1
    1ba8:	62 1f       	adc	r22, r18
    1baa:	73 9f       	mul	r23, r19
    1bac:	b0 0d       	add	r27, r0
    1bae:	a1 1d       	adc	r26, r1
    1bb0:	62 1f       	adc	r22, r18
    1bb2:	83 9f       	mul	r24, r19
    1bb4:	a0 0d       	add	r26, r0
    1bb6:	61 1d       	adc	r22, r1
    1bb8:	22 1f       	adc	r18, r18
    1bba:	74 9f       	mul	r23, r20
    1bbc:	33 27       	eor	r19, r19
    1bbe:	a0 0d       	add	r26, r0
    1bc0:	61 1d       	adc	r22, r1
    1bc2:	23 1f       	adc	r18, r19
    1bc4:	84 9f       	mul	r24, r20
    1bc6:	60 0d       	add	r22, r0
    1bc8:	21 1d       	adc	r18, r1
    1bca:	82 2f       	mov	r24, r18
    1bcc:	76 2f       	mov	r23, r22
    1bce:	6a 2f       	mov	r22, r26
    1bd0:	11 24       	eor	r1, r1
    1bd2:	9f 57       	subi	r25, 0x7F	; 127
    1bd4:	50 40       	sbci	r21, 0x00	; 0
    1bd6:	9a f0       	brmi	.+38     	; 0x1bfe <__mulsf3_pse+0x88>
    1bd8:	f1 f0       	breq	.+60     	; 0x1c16 <__mulsf3_pse+0xa0>
    1bda:	88 23       	and	r24, r24
    1bdc:	4a f0       	brmi	.+18     	; 0x1bf0 <__mulsf3_pse+0x7a>
    1bde:	ee 0f       	add	r30, r30
    1be0:	ff 1f       	adc	r31, r31
    1be2:	bb 1f       	adc	r27, r27
    1be4:	66 1f       	adc	r22, r22
    1be6:	77 1f       	adc	r23, r23
    1be8:	88 1f       	adc	r24, r24
    1bea:	91 50       	subi	r25, 0x01	; 1
    1bec:	50 40       	sbci	r21, 0x00	; 0
    1bee:	a9 f7       	brne	.-22     	; 0x1bda <__mulsf3_pse+0x64>
    1bf0:	9e 3f       	cpi	r25, 0xFE	; 254
    1bf2:	51 05       	cpc	r21, r1
    1bf4:	80 f0       	brcs	.+32     	; 0x1c16 <__mulsf3_pse+0xa0>
    1bf6:	0c 94 4f 0d 	jmp	0x1a9e	; 0x1a9e <__fp_inf>
    1bfa:	0c 94 9a 0d 	jmp	0x1b34	; 0x1b34 <__fp_szero>
    1bfe:	5f 3f       	cpi	r21, 0xFF	; 255
    1c00:	e4 f3       	brlt	.-8      	; 0x1bfa <__mulsf3_pse+0x84>
    1c02:	98 3e       	cpi	r25, 0xE8	; 232
    1c04:	d4 f3       	brlt	.-12     	; 0x1bfa <__mulsf3_pse+0x84>
    1c06:	86 95       	lsr	r24
    1c08:	77 95       	ror	r23
    1c0a:	67 95       	ror	r22
    1c0c:	b7 95       	ror	r27
    1c0e:	f7 95       	ror	r31
    1c10:	e7 95       	ror	r30
    1c12:	9f 5f       	subi	r25, 0xFF	; 255
    1c14:	c1 f7       	brne	.-16     	; 0x1c06 <__mulsf3_pse+0x90>
    1c16:	fe 2b       	or	r31, r30
    1c18:	88 0f       	add	r24, r24
    1c1a:	91 1d       	adc	r25, r1
    1c1c:	96 95       	lsr	r25
    1c1e:	87 95       	ror	r24
    1c20:	97 f9       	bld	r25, 7
    1c22:	08 95       	ret

00001c24 <fdevopen>:
    1c24:	0f 93       	push	r16
    1c26:	1f 93       	push	r17
    1c28:	cf 93       	push	r28
    1c2a:	df 93       	push	r29
    1c2c:	00 97       	sbiw	r24, 0x00	; 0
    1c2e:	31 f4       	brne	.+12     	; 0x1c3c <fdevopen+0x18>
    1c30:	61 15       	cp	r22, r1
    1c32:	71 05       	cpc	r23, r1
    1c34:	19 f4       	brne	.+6      	; 0x1c3c <fdevopen+0x18>
    1c36:	80 e0       	ldi	r24, 0x00	; 0
    1c38:	90 e0       	ldi	r25, 0x00	; 0
    1c3a:	3a c0       	rjmp	.+116    	; 0x1cb0 <fdevopen+0x8c>
    1c3c:	8b 01       	movw	r16, r22
    1c3e:	ec 01       	movw	r28, r24
    1c40:	6e e0       	ldi	r22, 0x0E	; 14
    1c42:	70 e0       	ldi	r23, 0x00	; 0
    1c44:	81 e0       	ldi	r24, 0x01	; 1
    1c46:	90 e0       	ldi	r25, 0x00	; 0
    1c48:	0e 94 54 10 	call	0x20a8	; 0x20a8 <calloc>
    1c4c:	fc 01       	movw	r30, r24
    1c4e:	89 2b       	or	r24, r25
    1c50:	91 f3       	breq	.-28     	; 0x1c36 <fdevopen+0x12>
    1c52:	80 e8       	ldi	r24, 0x80	; 128
    1c54:	83 83       	std	Z+3, r24	; 0x03
    1c56:	01 15       	cp	r16, r1
    1c58:	11 05       	cpc	r17, r1
    1c5a:	71 f0       	breq	.+28     	; 0x1c78 <fdevopen+0x54>
    1c5c:	13 87       	std	Z+11, r17	; 0x0b
    1c5e:	02 87       	std	Z+10, r16	; 0x0a
    1c60:	81 e8       	ldi	r24, 0x81	; 129
    1c62:	83 83       	std	Z+3, r24	; 0x03
    1c64:	80 91 24 02 	lds	r24, 0x0224	; 0x800224 <__iob>
    1c68:	90 91 25 02 	lds	r25, 0x0225	; 0x800225 <__iob+0x1>
    1c6c:	89 2b       	or	r24, r25
    1c6e:	21 f4       	brne	.+8      	; 0x1c78 <fdevopen+0x54>
    1c70:	f0 93 25 02 	sts	0x0225, r31	; 0x800225 <__iob+0x1>
    1c74:	e0 93 24 02 	sts	0x0224, r30	; 0x800224 <__iob>
    1c78:	20 97       	sbiw	r28, 0x00	; 0
    1c7a:	c9 f0       	breq	.+50     	; 0x1cae <fdevopen+0x8a>
    1c7c:	d1 87       	std	Z+9, r29	; 0x09
    1c7e:	c0 87       	std	Z+8, r28	; 0x08
    1c80:	83 81       	ldd	r24, Z+3	; 0x03
    1c82:	82 60       	ori	r24, 0x02	; 2
    1c84:	83 83       	std	Z+3, r24	; 0x03
    1c86:	80 91 26 02 	lds	r24, 0x0226	; 0x800226 <__iob+0x2>
    1c8a:	90 91 27 02 	lds	r25, 0x0227	; 0x800227 <__iob+0x3>
    1c8e:	89 2b       	or	r24, r25
    1c90:	71 f4       	brne	.+28     	; 0x1cae <fdevopen+0x8a>
    1c92:	f0 93 27 02 	sts	0x0227, r31	; 0x800227 <__iob+0x3>
    1c96:	e0 93 26 02 	sts	0x0226, r30	; 0x800226 <__iob+0x2>
    1c9a:	80 91 28 02 	lds	r24, 0x0228	; 0x800228 <__iob+0x4>
    1c9e:	90 91 29 02 	lds	r25, 0x0229	; 0x800229 <__iob+0x5>
    1ca2:	89 2b       	or	r24, r25
    1ca4:	21 f4       	brne	.+8      	; 0x1cae <fdevopen+0x8a>
    1ca6:	f0 93 29 02 	sts	0x0229, r31	; 0x800229 <__iob+0x5>
    1caa:	e0 93 28 02 	sts	0x0228, r30	; 0x800228 <__iob+0x4>
    1cae:	cf 01       	movw	r24, r30
    1cb0:	df 91       	pop	r29
    1cb2:	cf 91       	pop	r28
    1cb4:	1f 91       	pop	r17
    1cb6:	0f 91       	pop	r16
    1cb8:	08 95       	ret

00001cba <printf>:
    1cba:	a0 e0       	ldi	r26, 0x00	; 0
    1cbc:	b0 e0       	ldi	r27, 0x00	; 0
    1cbe:	e3 e6       	ldi	r30, 0x63	; 99
    1cc0:	fe e0       	ldi	r31, 0x0E	; 14
    1cc2:	0c 94 58 12 	jmp	0x24b0	; 0x24b0 <__prologue_saves__+0x20>
    1cc6:	ae 01       	movw	r20, r28
    1cc8:	4b 5f       	subi	r20, 0xFB	; 251
    1cca:	5f 4f       	sbci	r21, 0xFF	; 255
    1ccc:	fa 01       	movw	r30, r20
    1cce:	61 91       	ld	r22, Z+
    1cd0:	71 91       	ld	r23, Z+
    1cd2:	af 01       	movw	r20, r30
    1cd4:	80 91 26 02 	lds	r24, 0x0226	; 0x800226 <__iob+0x2>
    1cd8:	90 91 27 02 	lds	r25, 0x0227	; 0x800227 <__iob+0x3>
    1cdc:	0e 94 73 0e 	call	0x1ce6	; 0x1ce6 <vfprintf>
    1ce0:	e2 e0       	ldi	r30, 0x02	; 2
    1ce2:	0c 94 74 12 	jmp	0x24e8	; 0x24e8 <__epilogue_restores__+0x20>

00001ce6 <vfprintf>:
    1ce6:	ab e0       	ldi	r26, 0x0B	; 11
    1ce8:	b0 e0       	ldi	r27, 0x00	; 0
    1cea:	e9 e7       	ldi	r30, 0x79	; 121
    1cec:	fe e0       	ldi	r31, 0x0E	; 14
    1cee:	0c 94 48 12 	jmp	0x2490	; 0x2490 <__prologue_saves__>
    1cf2:	6c 01       	movw	r12, r24
    1cf4:	7b 01       	movw	r14, r22
    1cf6:	8a 01       	movw	r16, r20
    1cf8:	fc 01       	movw	r30, r24
    1cfa:	17 82       	std	Z+7, r1	; 0x07
    1cfc:	16 82       	std	Z+6, r1	; 0x06
    1cfe:	83 81       	ldd	r24, Z+3	; 0x03
    1d00:	81 ff       	sbrs	r24, 1
    1d02:	cc c1       	rjmp	.+920    	; 0x209c <vfprintf+0x3b6>
    1d04:	ce 01       	movw	r24, r28
    1d06:	01 96       	adiw	r24, 0x01	; 1
    1d08:	3c 01       	movw	r6, r24
    1d0a:	f6 01       	movw	r30, r12
    1d0c:	93 81       	ldd	r25, Z+3	; 0x03
    1d0e:	f7 01       	movw	r30, r14
    1d10:	93 fd       	sbrc	r25, 3
    1d12:	85 91       	lpm	r24, Z+
    1d14:	93 ff       	sbrs	r25, 3
    1d16:	81 91       	ld	r24, Z+
    1d18:	7f 01       	movw	r14, r30
    1d1a:	88 23       	and	r24, r24
    1d1c:	09 f4       	brne	.+2      	; 0x1d20 <vfprintf+0x3a>
    1d1e:	ba c1       	rjmp	.+884    	; 0x2094 <vfprintf+0x3ae>
    1d20:	85 32       	cpi	r24, 0x25	; 37
    1d22:	39 f4       	brne	.+14     	; 0x1d32 <vfprintf+0x4c>
    1d24:	93 fd       	sbrc	r25, 3
    1d26:	85 91       	lpm	r24, Z+
    1d28:	93 ff       	sbrs	r25, 3
    1d2a:	81 91       	ld	r24, Z+
    1d2c:	7f 01       	movw	r14, r30
    1d2e:	85 32       	cpi	r24, 0x25	; 37
    1d30:	29 f4       	brne	.+10     	; 0x1d3c <vfprintf+0x56>
    1d32:	b6 01       	movw	r22, r12
    1d34:	90 e0       	ldi	r25, 0x00	; 0
    1d36:	0e 94 ae 11 	call	0x235c	; 0x235c <fputc>
    1d3a:	e7 cf       	rjmp	.-50     	; 0x1d0a <vfprintf+0x24>
    1d3c:	91 2c       	mov	r9, r1
    1d3e:	21 2c       	mov	r2, r1
    1d40:	31 2c       	mov	r3, r1
    1d42:	ff e1       	ldi	r31, 0x1F	; 31
    1d44:	f3 15       	cp	r31, r3
    1d46:	d8 f0       	brcs	.+54     	; 0x1d7e <vfprintf+0x98>
    1d48:	8b 32       	cpi	r24, 0x2B	; 43
    1d4a:	79 f0       	breq	.+30     	; 0x1d6a <vfprintf+0x84>
    1d4c:	38 f4       	brcc	.+14     	; 0x1d5c <vfprintf+0x76>
    1d4e:	80 32       	cpi	r24, 0x20	; 32
    1d50:	79 f0       	breq	.+30     	; 0x1d70 <vfprintf+0x8a>
    1d52:	83 32       	cpi	r24, 0x23	; 35
    1d54:	a1 f4       	brne	.+40     	; 0x1d7e <vfprintf+0x98>
    1d56:	23 2d       	mov	r18, r3
    1d58:	20 61       	ori	r18, 0x10	; 16
    1d5a:	1d c0       	rjmp	.+58     	; 0x1d96 <vfprintf+0xb0>
    1d5c:	8d 32       	cpi	r24, 0x2D	; 45
    1d5e:	61 f0       	breq	.+24     	; 0x1d78 <vfprintf+0x92>
    1d60:	80 33       	cpi	r24, 0x30	; 48
    1d62:	69 f4       	brne	.+26     	; 0x1d7e <vfprintf+0x98>
    1d64:	23 2d       	mov	r18, r3
    1d66:	21 60       	ori	r18, 0x01	; 1
    1d68:	16 c0       	rjmp	.+44     	; 0x1d96 <vfprintf+0xb0>
    1d6a:	83 2d       	mov	r24, r3
    1d6c:	82 60       	ori	r24, 0x02	; 2
    1d6e:	38 2e       	mov	r3, r24
    1d70:	e3 2d       	mov	r30, r3
    1d72:	e4 60       	ori	r30, 0x04	; 4
    1d74:	3e 2e       	mov	r3, r30
    1d76:	2a c0       	rjmp	.+84     	; 0x1dcc <vfprintf+0xe6>
    1d78:	f3 2d       	mov	r31, r3
    1d7a:	f8 60       	ori	r31, 0x08	; 8
    1d7c:	1d c0       	rjmp	.+58     	; 0x1db8 <vfprintf+0xd2>
    1d7e:	37 fc       	sbrc	r3, 7
    1d80:	2d c0       	rjmp	.+90     	; 0x1ddc <vfprintf+0xf6>
    1d82:	20 ed       	ldi	r18, 0xD0	; 208
    1d84:	28 0f       	add	r18, r24
    1d86:	2a 30       	cpi	r18, 0x0A	; 10
    1d88:	40 f0       	brcs	.+16     	; 0x1d9a <vfprintf+0xb4>
    1d8a:	8e 32       	cpi	r24, 0x2E	; 46
    1d8c:	b9 f4       	brne	.+46     	; 0x1dbc <vfprintf+0xd6>
    1d8e:	36 fc       	sbrc	r3, 6
    1d90:	81 c1       	rjmp	.+770    	; 0x2094 <vfprintf+0x3ae>
    1d92:	23 2d       	mov	r18, r3
    1d94:	20 64       	ori	r18, 0x40	; 64
    1d96:	32 2e       	mov	r3, r18
    1d98:	19 c0       	rjmp	.+50     	; 0x1dcc <vfprintf+0xe6>
    1d9a:	36 fe       	sbrs	r3, 6
    1d9c:	06 c0       	rjmp	.+12     	; 0x1daa <vfprintf+0xc4>
    1d9e:	8a e0       	ldi	r24, 0x0A	; 10
    1da0:	98 9e       	mul	r9, r24
    1da2:	20 0d       	add	r18, r0
    1da4:	11 24       	eor	r1, r1
    1da6:	92 2e       	mov	r9, r18
    1da8:	11 c0       	rjmp	.+34     	; 0x1dcc <vfprintf+0xe6>
    1daa:	ea e0       	ldi	r30, 0x0A	; 10
    1dac:	2e 9e       	mul	r2, r30
    1dae:	20 0d       	add	r18, r0
    1db0:	11 24       	eor	r1, r1
    1db2:	22 2e       	mov	r2, r18
    1db4:	f3 2d       	mov	r31, r3
    1db6:	f0 62       	ori	r31, 0x20	; 32
    1db8:	3f 2e       	mov	r3, r31
    1dba:	08 c0       	rjmp	.+16     	; 0x1dcc <vfprintf+0xe6>
    1dbc:	8c 36       	cpi	r24, 0x6C	; 108
    1dbe:	21 f4       	brne	.+8      	; 0x1dc8 <vfprintf+0xe2>
    1dc0:	83 2d       	mov	r24, r3
    1dc2:	80 68       	ori	r24, 0x80	; 128
    1dc4:	38 2e       	mov	r3, r24
    1dc6:	02 c0       	rjmp	.+4      	; 0x1dcc <vfprintf+0xe6>
    1dc8:	88 36       	cpi	r24, 0x68	; 104
    1dca:	41 f4       	brne	.+16     	; 0x1ddc <vfprintf+0xf6>
    1dcc:	f7 01       	movw	r30, r14
    1dce:	93 fd       	sbrc	r25, 3
    1dd0:	85 91       	lpm	r24, Z+
    1dd2:	93 ff       	sbrs	r25, 3
    1dd4:	81 91       	ld	r24, Z+
    1dd6:	7f 01       	movw	r14, r30
    1dd8:	81 11       	cpse	r24, r1
    1dda:	b3 cf       	rjmp	.-154    	; 0x1d42 <vfprintf+0x5c>
    1ddc:	98 2f       	mov	r25, r24
    1dde:	9f 7d       	andi	r25, 0xDF	; 223
    1de0:	95 54       	subi	r25, 0x45	; 69
    1de2:	93 30       	cpi	r25, 0x03	; 3
    1de4:	28 f4       	brcc	.+10     	; 0x1df0 <vfprintf+0x10a>
    1de6:	0c 5f       	subi	r16, 0xFC	; 252
    1de8:	1f 4f       	sbci	r17, 0xFF	; 255
    1dea:	9f e3       	ldi	r25, 0x3F	; 63
    1dec:	99 83       	std	Y+1, r25	; 0x01
    1dee:	0d c0       	rjmp	.+26     	; 0x1e0a <vfprintf+0x124>
    1df0:	83 36       	cpi	r24, 0x63	; 99
    1df2:	31 f0       	breq	.+12     	; 0x1e00 <vfprintf+0x11a>
    1df4:	83 37       	cpi	r24, 0x73	; 115
    1df6:	71 f0       	breq	.+28     	; 0x1e14 <vfprintf+0x12e>
    1df8:	83 35       	cpi	r24, 0x53	; 83
    1dfa:	09 f0       	breq	.+2      	; 0x1dfe <vfprintf+0x118>
    1dfc:	59 c0       	rjmp	.+178    	; 0x1eb0 <vfprintf+0x1ca>
    1dfe:	21 c0       	rjmp	.+66     	; 0x1e42 <vfprintf+0x15c>
    1e00:	f8 01       	movw	r30, r16
    1e02:	80 81       	ld	r24, Z
    1e04:	89 83       	std	Y+1, r24	; 0x01
    1e06:	0e 5f       	subi	r16, 0xFE	; 254
    1e08:	1f 4f       	sbci	r17, 0xFF	; 255
    1e0a:	88 24       	eor	r8, r8
    1e0c:	83 94       	inc	r8
    1e0e:	91 2c       	mov	r9, r1
    1e10:	53 01       	movw	r10, r6
    1e12:	13 c0       	rjmp	.+38     	; 0x1e3a <vfprintf+0x154>
    1e14:	28 01       	movw	r4, r16
    1e16:	f2 e0       	ldi	r31, 0x02	; 2
    1e18:	4f 0e       	add	r4, r31
    1e1a:	51 1c       	adc	r5, r1
    1e1c:	f8 01       	movw	r30, r16
    1e1e:	a0 80       	ld	r10, Z
    1e20:	b1 80       	ldd	r11, Z+1	; 0x01
    1e22:	36 fe       	sbrs	r3, 6
    1e24:	03 c0       	rjmp	.+6      	; 0x1e2c <vfprintf+0x146>
    1e26:	69 2d       	mov	r22, r9
    1e28:	70 e0       	ldi	r23, 0x00	; 0
    1e2a:	02 c0       	rjmp	.+4      	; 0x1e30 <vfprintf+0x14a>
    1e2c:	6f ef       	ldi	r22, 0xFF	; 255
    1e2e:	7f ef       	ldi	r23, 0xFF	; 255
    1e30:	c5 01       	movw	r24, r10
    1e32:	0e 94 a3 11 	call	0x2346	; 0x2346 <strnlen>
    1e36:	4c 01       	movw	r8, r24
    1e38:	82 01       	movw	r16, r4
    1e3a:	f3 2d       	mov	r31, r3
    1e3c:	ff 77       	andi	r31, 0x7F	; 127
    1e3e:	3f 2e       	mov	r3, r31
    1e40:	16 c0       	rjmp	.+44     	; 0x1e6e <vfprintf+0x188>
    1e42:	28 01       	movw	r4, r16
    1e44:	22 e0       	ldi	r18, 0x02	; 2
    1e46:	42 0e       	add	r4, r18
    1e48:	51 1c       	adc	r5, r1
    1e4a:	f8 01       	movw	r30, r16
    1e4c:	a0 80       	ld	r10, Z
    1e4e:	b1 80       	ldd	r11, Z+1	; 0x01
    1e50:	36 fe       	sbrs	r3, 6
    1e52:	03 c0       	rjmp	.+6      	; 0x1e5a <vfprintf+0x174>
    1e54:	69 2d       	mov	r22, r9
    1e56:	70 e0       	ldi	r23, 0x00	; 0
    1e58:	02 c0       	rjmp	.+4      	; 0x1e5e <vfprintf+0x178>
    1e5a:	6f ef       	ldi	r22, 0xFF	; 255
    1e5c:	7f ef       	ldi	r23, 0xFF	; 255
    1e5e:	c5 01       	movw	r24, r10
    1e60:	0e 94 91 11 	call	0x2322	; 0x2322 <strnlen_P>
    1e64:	4c 01       	movw	r8, r24
    1e66:	f3 2d       	mov	r31, r3
    1e68:	f0 68       	ori	r31, 0x80	; 128
    1e6a:	3f 2e       	mov	r3, r31
    1e6c:	82 01       	movw	r16, r4
    1e6e:	33 fc       	sbrc	r3, 3
    1e70:	1b c0       	rjmp	.+54     	; 0x1ea8 <vfprintf+0x1c2>
    1e72:	82 2d       	mov	r24, r2
    1e74:	90 e0       	ldi	r25, 0x00	; 0
    1e76:	88 16       	cp	r8, r24
    1e78:	99 06       	cpc	r9, r25
    1e7a:	b0 f4       	brcc	.+44     	; 0x1ea8 <vfprintf+0x1c2>
    1e7c:	b6 01       	movw	r22, r12
    1e7e:	80 e2       	ldi	r24, 0x20	; 32
    1e80:	90 e0       	ldi	r25, 0x00	; 0
    1e82:	0e 94 ae 11 	call	0x235c	; 0x235c <fputc>
    1e86:	2a 94       	dec	r2
    1e88:	f4 cf       	rjmp	.-24     	; 0x1e72 <vfprintf+0x18c>
    1e8a:	f5 01       	movw	r30, r10
    1e8c:	37 fc       	sbrc	r3, 7
    1e8e:	85 91       	lpm	r24, Z+
    1e90:	37 fe       	sbrs	r3, 7
    1e92:	81 91       	ld	r24, Z+
    1e94:	5f 01       	movw	r10, r30
    1e96:	b6 01       	movw	r22, r12
    1e98:	90 e0       	ldi	r25, 0x00	; 0
    1e9a:	0e 94 ae 11 	call	0x235c	; 0x235c <fputc>
    1e9e:	21 10       	cpse	r2, r1
    1ea0:	2a 94       	dec	r2
    1ea2:	21 e0       	ldi	r18, 0x01	; 1
    1ea4:	82 1a       	sub	r8, r18
    1ea6:	91 08       	sbc	r9, r1
    1ea8:	81 14       	cp	r8, r1
    1eaa:	91 04       	cpc	r9, r1
    1eac:	71 f7       	brne	.-36     	; 0x1e8a <vfprintf+0x1a4>
    1eae:	e8 c0       	rjmp	.+464    	; 0x2080 <vfprintf+0x39a>
    1eb0:	84 36       	cpi	r24, 0x64	; 100
    1eb2:	11 f0       	breq	.+4      	; 0x1eb8 <vfprintf+0x1d2>
    1eb4:	89 36       	cpi	r24, 0x69	; 105
    1eb6:	41 f5       	brne	.+80     	; 0x1f08 <vfprintf+0x222>
    1eb8:	f8 01       	movw	r30, r16
    1eba:	37 fe       	sbrs	r3, 7
    1ebc:	07 c0       	rjmp	.+14     	; 0x1ecc <vfprintf+0x1e6>
    1ebe:	60 81       	ld	r22, Z
    1ec0:	71 81       	ldd	r23, Z+1	; 0x01
    1ec2:	82 81       	ldd	r24, Z+2	; 0x02
    1ec4:	93 81       	ldd	r25, Z+3	; 0x03
    1ec6:	0c 5f       	subi	r16, 0xFC	; 252
    1ec8:	1f 4f       	sbci	r17, 0xFF	; 255
    1eca:	08 c0       	rjmp	.+16     	; 0x1edc <vfprintf+0x1f6>
    1ecc:	60 81       	ld	r22, Z
    1ece:	71 81       	ldd	r23, Z+1	; 0x01
    1ed0:	07 2e       	mov	r0, r23
    1ed2:	00 0c       	add	r0, r0
    1ed4:	88 0b       	sbc	r24, r24
    1ed6:	99 0b       	sbc	r25, r25
    1ed8:	0e 5f       	subi	r16, 0xFE	; 254
    1eda:	1f 4f       	sbci	r17, 0xFF	; 255
    1edc:	f3 2d       	mov	r31, r3
    1ede:	ff 76       	andi	r31, 0x6F	; 111
    1ee0:	3f 2e       	mov	r3, r31
    1ee2:	97 ff       	sbrs	r25, 7
    1ee4:	09 c0       	rjmp	.+18     	; 0x1ef8 <vfprintf+0x212>
    1ee6:	90 95       	com	r25
    1ee8:	80 95       	com	r24
    1eea:	70 95       	com	r23
    1eec:	61 95       	neg	r22
    1eee:	7f 4f       	sbci	r23, 0xFF	; 255
    1ef0:	8f 4f       	sbci	r24, 0xFF	; 255
    1ef2:	9f 4f       	sbci	r25, 0xFF	; 255
    1ef4:	f0 68       	ori	r31, 0x80	; 128
    1ef6:	3f 2e       	mov	r3, r31
    1ef8:	2a e0       	ldi	r18, 0x0A	; 10
    1efa:	30 e0       	ldi	r19, 0x00	; 0
    1efc:	a3 01       	movw	r20, r6
    1efe:	0e 94 ea 11 	call	0x23d4	; 0x23d4 <__ultoa_invert>
    1f02:	88 2e       	mov	r8, r24
    1f04:	86 18       	sub	r8, r6
    1f06:	45 c0       	rjmp	.+138    	; 0x1f92 <vfprintf+0x2ac>
    1f08:	85 37       	cpi	r24, 0x75	; 117
    1f0a:	31 f4       	brne	.+12     	; 0x1f18 <vfprintf+0x232>
    1f0c:	23 2d       	mov	r18, r3
    1f0e:	2f 7e       	andi	r18, 0xEF	; 239
    1f10:	b2 2e       	mov	r11, r18
    1f12:	2a e0       	ldi	r18, 0x0A	; 10
    1f14:	30 e0       	ldi	r19, 0x00	; 0
    1f16:	25 c0       	rjmp	.+74     	; 0x1f62 <vfprintf+0x27c>
    1f18:	93 2d       	mov	r25, r3
    1f1a:	99 7f       	andi	r25, 0xF9	; 249
    1f1c:	b9 2e       	mov	r11, r25
    1f1e:	8f 36       	cpi	r24, 0x6F	; 111
    1f20:	c1 f0       	breq	.+48     	; 0x1f52 <vfprintf+0x26c>
    1f22:	18 f4       	brcc	.+6      	; 0x1f2a <vfprintf+0x244>
    1f24:	88 35       	cpi	r24, 0x58	; 88
    1f26:	79 f0       	breq	.+30     	; 0x1f46 <vfprintf+0x260>
    1f28:	b5 c0       	rjmp	.+362    	; 0x2094 <vfprintf+0x3ae>
    1f2a:	80 37       	cpi	r24, 0x70	; 112
    1f2c:	19 f0       	breq	.+6      	; 0x1f34 <vfprintf+0x24e>
    1f2e:	88 37       	cpi	r24, 0x78	; 120
    1f30:	21 f0       	breq	.+8      	; 0x1f3a <vfprintf+0x254>
    1f32:	b0 c0       	rjmp	.+352    	; 0x2094 <vfprintf+0x3ae>
    1f34:	e9 2f       	mov	r30, r25
    1f36:	e0 61       	ori	r30, 0x10	; 16
    1f38:	be 2e       	mov	r11, r30
    1f3a:	b4 fe       	sbrs	r11, 4
    1f3c:	0d c0       	rjmp	.+26     	; 0x1f58 <vfprintf+0x272>
    1f3e:	fb 2d       	mov	r31, r11
    1f40:	f4 60       	ori	r31, 0x04	; 4
    1f42:	bf 2e       	mov	r11, r31
    1f44:	09 c0       	rjmp	.+18     	; 0x1f58 <vfprintf+0x272>
    1f46:	34 fe       	sbrs	r3, 4
    1f48:	0a c0       	rjmp	.+20     	; 0x1f5e <vfprintf+0x278>
    1f4a:	29 2f       	mov	r18, r25
    1f4c:	26 60       	ori	r18, 0x06	; 6
    1f4e:	b2 2e       	mov	r11, r18
    1f50:	06 c0       	rjmp	.+12     	; 0x1f5e <vfprintf+0x278>
    1f52:	28 e0       	ldi	r18, 0x08	; 8
    1f54:	30 e0       	ldi	r19, 0x00	; 0
    1f56:	05 c0       	rjmp	.+10     	; 0x1f62 <vfprintf+0x27c>
    1f58:	20 e1       	ldi	r18, 0x10	; 16
    1f5a:	30 e0       	ldi	r19, 0x00	; 0
    1f5c:	02 c0       	rjmp	.+4      	; 0x1f62 <vfprintf+0x27c>
    1f5e:	20 e1       	ldi	r18, 0x10	; 16
    1f60:	32 e0       	ldi	r19, 0x02	; 2
    1f62:	f8 01       	movw	r30, r16
    1f64:	b7 fe       	sbrs	r11, 7
    1f66:	07 c0       	rjmp	.+14     	; 0x1f76 <vfprintf+0x290>
    1f68:	60 81       	ld	r22, Z
    1f6a:	71 81       	ldd	r23, Z+1	; 0x01
    1f6c:	82 81       	ldd	r24, Z+2	; 0x02
    1f6e:	93 81       	ldd	r25, Z+3	; 0x03
    1f70:	0c 5f       	subi	r16, 0xFC	; 252
    1f72:	1f 4f       	sbci	r17, 0xFF	; 255
    1f74:	06 c0       	rjmp	.+12     	; 0x1f82 <vfprintf+0x29c>
    1f76:	60 81       	ld	r22, Z
    1f78:	71 81       	ldd	r23, Z+1	; 0x01
    1f7a:	80 e0       	ldi	r24, 0x00	; 0
    1f7c:	90 e0       	ldi	r25, 0x00	; 0
    1f7e:	0e 5f       	subi	r16, 0xFE	; 254
    1f80:	1f 4f       	sbci	r17, 0xFF	; 255
    1f82:	a3 01       	movw	r20, r6
    1f84:	0e 94 ea 11 	call	0x23d4	; 0x23d4 <__ultoa_invert>
    1f88:	88 2e       	mov	r8, r24
    1f8a:	86 18       	sub	r8, r6
    1f8c:	fb 2d       	mov	r31, r11
    1f8e:	ff 77       	andi	r31, 0x7F	; 127
    1f90:	3f 2e       	mov	r3, r31
    1f92:	36 fe       	sbrs	r3, 6
    1f94:	0d c0       	rjmp	.+26     	; 0x1fb0 <vfprintf+0x2ca>
    1f96:	23 2d       	mov	r18, r3
    1f98:	2e 7f       	andi	r18, 0xFE	; 254
    1f9a:	a2 2e       	mov	r10, r18
    1f9c:	89 14       	cp	r8, r9
    1f9e:	58 f4       	brcc	.+22     	; 0x1fb6 <vfprintf+0x2d0>
    1fa0:	34 fe       	sbrs	r3, 4
    1fa2:	0b c0       	rjmp	.+22     	; 0x1fba <vfprintf+0x2d4>
    1fa4:	32 fc       	sbrc	r3, 2
    1fa6:	09 c0       	rjmp	.+18     	; 0x1fba <vfprintf+0x2d4>
    1fa8:	83 2d       	mov	r24, r3
    1faa:	8e 7e       	andi	r24, 0xEE	; 238
    1fac:	a8 2e       	mov	r10, r24
    1fae:	05 c0       	rjmp	.+10     	; 0x1fba <vfprintf+0x2d4>
    1fb0:	b8 2c       	mov	r11, r8
    1fb2:	a3 2c       	mov	r10, r3
    1fb4:	03 c0       	rjmp	.+6      	; 0x1fbc <vfprintf+0x2d6>
    1fb6:	b8 2c       	mov	r11, r8
    1fb8:	01 c0       	rjmp	.+2      	; 0x1fbc <vfprintf+0x2d6>
    1fba:	b9 2c       	mov	r11, r9
    1fbc:	a4 fe       	sbrs	r10, 4
    1fbe:	0f c0       	rjmp	.+30     	; 0x1fde <vfprintf+0x2f8>
    1fc0:	fe 01       	movw	r30, r28
    1fc2:	e8 0d       	add	r30, r8
    1fc4:	f1 1d       	adc	r31, r1
    1fc6:	80 81       	ld	r24, Z
    1fc8:	80 33       	cpi	r24, 0x30	; 48
    1fca:	21 f4       	brne	.+8      	; 0x1fd4 <vfprintf+0x2ee>
    1fcc:	9a 2d       	mov	r25, r10
    1fce:	99 7e       	andi	r25, 0xE9	; 233
    1fd0:	a9 2e       	mov	r10, r25
    1fd2:	09 c0       	rjmp	.+18     	; 0x1fe6 <vfprintf+0x300>
    1fd4:	a2 fe       	sbrs	r10, 2
    1fd6:	06 c0       	rjmp	.+12     	; 0x1fe4 <vfprintf+0x2fe>
    1fd8:	b3 94       	inc	r11
    1fda:	b3 94       	inc	r11
    1fdc:	04 c0       	rjmp	.+8      	; 0x1fe6 <vfprintf+0x300>
    1fde:	8a 2d       	mov	r24, r10
    1fe0:	86 78       	andi	r24, 0x86	; 134
    1fe2:	09 f0       	breq	.+2      	; 0x1fe6 <vfprintf+0x300>
    1fe4:	b3 94       	inc	r11
    1fe6:	a3 fc       	sbrc	r10, 3
    1fe8:	11 c0       	rjmp	.+34     	; 0x200c <vfprintf+0x326>
    1fea:	a0 fe       	sbrs	r10, 0
    1fec:	06 c0       	rjmp	.+12     	; 0x1ffa <vfprintf+0x314>
    1fee:	b2 14       	cp	r11, r2
    1ff0:	88 f4       	brcc	.+34     	; 0x2014 <vfprintf+0x32e>
    1ff2:	28 0c       	add	r2, r8
    1ff4:	92 2c       	mov	r9, r2
    1ff6:	9b 18       	sub	r9, r11
    1ff8:	0e c0       	rjmp	.+28     	; 0x2016 <vfprintf+0x330>
    1ffa:	b2 14       	cp	r11, r2
    1ffc:	60 f4       	brcc	.+24     	; 0x2016 <vfprintf+0x330>
    1ffe:	b6 01       	movw	r22, r12
    2000:	80 e2       	ldi	r24, 0x20	; 32
    2002:	90 e0       	ldi	r25, 0x00	; 0
    2004:	0e 94 ae 11 	call	0x235c	; 0x235c <fputc>
    2008:	b3 94       	inc	r11
    200a:	f7 cf       	rjmp	.-18     	; 0x1ffa <vfprintf+0x314>
    200c:	b2 14       	cp	r11, r2
    200e:	18 f4       	brcc	.+6      	; 0x2016 <vfprintf+0x330>
    2010:	2b 18       	sub	r2, r11
    2012:	02 c0       	rjmp	.+4      	; 0x2018 <vfprintf+0x332>
    2014:	98 2c       	mov	r9, r8
    2016:	21 2c       	mov	r2, r1
    2018:	a4 fe       	sbrs	r10, 4
    201a:	10 c0       	rjmp	.+32     	; 0x203c <vfprintf+0x356>
    201c:	b6 01       	movw	r22, r12
    201e:	80 e3       	ldi	r24, 0x30	; 48
    2020:	90 e0       	ldi	r25, 0x00	; 0
    2022:	0e 94 ae 11 	call	0x235c	; 0x235c <fputc>
    2026:	a2 fe       	sbrs	r10, 2
    2028:	17 c0       	rjmp	.+46     	; 0x2058 <vfprintf+0x372>
    202a:	a1 fc       	sbrc	r10, 1
    202c:	03 c0       	rjmp	.+6      	; 0x2034 <vfprintf+0x34e>
    202e:	88 e7       	ldi	r24, 0x78	; 120
    2030:	90 e0       	ldi	r25, 0x00	; 0
    2032:	02 c0       	rjmp	.+4      	; 0x2038 <vfprintf+0x352>
    2034:	88 e5       	ldi	r24, 0x58	; 88
    2036:	90 e0       	ldi	r25, 0x00	; 0
    2038:	b6 01       	movw	r22, r12
    203a:	0c c0       	rjmp	.+24     	; 0x2054 <vfprintf+0x36e>
    203c:	8a 2d       	mov	r24, r10
    203e:	86 78       	andi	r24, 0x86	; 134
    2040:	59 f0       	breq	.+22     	; 0x2058 <vfprintf+0x372>
    2042:	a1 fe       	sbrs	r10, 1
    2044:	02 c0       	rjmp	.+4      	; 0x204a <vfprintf+0x364>
    2046:	8b e2       	ldi	r24, 0x2B	; 43
    2048:	01 c0       	rjmp	.+2      	; 0x204c <vfprintf+0x366>
    204a:	80 e2       	ldi	r24, 0x20	; 32
    204c:	a7 fc       	sbrc	r10, 7
    204e:	8d e2       	ldi	r24, 0x2D	; 45
    2050:	b6 01       	movw	r22, r12
    2052:	90 e0       	ldi	r25, 0x00	; 0
    2054:	0e 94 ae 11 	call	0x235c	; 0x235c <fputc>
    2058:	89 14       	cp	r8, r9
    205a:	38 f4       	brcc	.+14     	; 0x206a <vfprintf+0x384>
    205c:	b6 01       	movw	r22, r12
    205e:	80 e3       	ldi	r24, 0x30	; 48
    2060:	90 e0       	ldi	r25, 0x00	; 0
    2062:	0e 94 ae 11 	call	0x235c	; 0x235c <fputc>
    2066:	9a 94       	dec	r9
    2068:	f7 cf       	rjmp	.-18     	; 0x2058 <vfprintf+0x372>
    206a:	8a 94       	dec	r8
    206c:	f3 01       	movw	r30, r6
    206e:	e8 0d       	add	r30, r8
    2070:	f1 1d       	adc	r31, r1
    2072:	80 81       	ld	r24, Z
    2074:	b6 01       	movw	r22, r12
    2076:	90 e0       	ldi	r25, 0x00	; 0
    2078:	0e 94 ae 11 	call	0x235c	; 0x235c <fputc>
    207c:	81 10       	cpse	r8, r1
    207e:	f5 cf       	rjmp	.-22     	; 0x206a <vfprintf+0x384>
    2080:	22 20       	and	r2, r2
    2082:	09 f4       	brne	.+2      	; 0x2086 <vfprintf+0x3a0>
    2084:	42 ce       	rjmp	.-892    	; 0x1d0a <vfprintf+0x24>
    2086:	b6 01       	movw	r22, r12
    2088:	80 e2       	ldi	r24, 0x20	; 32
    208a:	90 e0       	ldi	r25, 0x00	; 0
    208c:	0e 94 ae 11 	call	0x235c	; 0x235c <fputc>
    2090:	2a 94       	dec	r2
    2092:	f6 cf       	rjmp	.-20     	; 0x2080 <vfprintf+0x39a>
    2094:	f6 01       	movw	r30, r12
    2096:	86 81       	ldd	r24, Z+6	; 0x06
    2098:	97 81       	ldd	r25, Z+7	; 0x07
    209a:	02 c0       	rjmp	.+4      	; 0x20a0 <vfprintf+0x3ba>
    209c:	8f ef       	ldi	r24, 0xFF	; 255
    209e:	9f ef       	ldi	r25, 0xFF	; 255
    20a0:	2b 96       	adiw	r28, 0x0b	; 11
    20a2:	e2 e1       	ldi	r30, 0x12	; 18
    20a4:	0c 94 64 12 	jmp	0x24c8	; 0x24c8 <__epilogue_restores__>

000020a8 <calloc>:
    20a8:	0f 93       	push	r16
    20aa:	1f 93       	push	r17
    20ac:	cf 93       	push	r28
    20ae:	df 93       	push	r29
    20b0:	86 9f       	mul	r24, r22
    20b2:	80 01       	movw	r16, r0
    20b4:	87 9f       	mul	r24, r23
    20b6:	10 0d       	add	r17, r0
    20b8:	96 9f       	mul	r25, r22
    20ba:	10 0d       	add	r17, r0
    20bc:	11 24       	eor	r1, r1
    20be:	c8 01       	movw	r24, r16
    20c0:	0e 94 70 10 	call	0x20e0	; 0x20e0 <malloc>
    20c4:	ec 01       	movw	r28, r24
    20c6:	00 97       	sbiw	r24, 0x00	; 0
    20c8:	29 f0       	breq	.+10     	; 0x20d4 <calloc+0x2c>
    20ca:	a8 01       	movw	r20, r16
    20cc:	60 e0       	ldi	r22, 0x00	; 0
    20ce:	70 e0       	ldi	r23, 0x00	; 0
    20d0:	0e 94 9c 11 	call	0x2338	; 0x2338 <memset>
    20d4:	ce 01       	movw	r24, r28
    20d6:	df 91       	pop	r29
    20d8:	cf 91       	pop	r28
    20da:	1f 91       	pop	r17
    20dc:	0f 91       	pop	r16
    20de:	08 95       	ret

000020e0 <malloc>:
    20e0:	0f 93       	push	r16
    20e2:	1f 93       	push	r17
    20e4:	cf 93       	push	r28
    20e6:	df 93       	push	r29
    20e8:	82 30       	cpi	r24, 0x02	; 2
    20ea:	91 05       	cpc	r25, r1
    20ec:	10 f4       	brcc	.+4      	; 0x20f2 <malloc+0x12>
    20ee:	82 e0       	ldi	r24, 0x02	; 2
    20f0:	90 e0       	ldi	r25, 0x00	; 0
    20f2:	e0 91 2c 02 	lds	r30, 0x022C	; 0x80022c <__flp>
    20f6:	f0 91 2d 02 	lds	r31, 0x022D	; 0x80022d <__flp+0x1>
    20fa:	20 e0       	ldi	r18, 0x00	; 0
    20fc:	30 e0       	ldi	r19, 0x00	; 0
    20fe:	a0 e0       	ldi	r26, 0x00	; 0
    2100:	b0 e0       	ldi	r27, 0x00	; 0
    2102:	30 97       	sbiw	r30, 0x00	; 0
    2104:	19 f1       	breq	.+70     	; 0x214c <malloc+0x6c>
    2106:	40 81       	ld	r20, Z
    2108:	51 81       	ldd	r21, Z+1	; 0x01
    210a:	02 81       	ldd	r16, Z+2	; 0x02
    210c:	13 81       	ldd	r17, Z+3	; 0x03
    210e:	48 17       	cp	r20, r24
    2110:	59 07       	cpc	r21, r25
    2112:	c8 f0       	brcs	.+50     	; 0x2146 <malloc+0x66>
    2114:	84 17       	cp	r24, r20
    2116:	95 07       	cpc	r25, r21
    2118:	69 f4       	brne	.+26     	; 0x2134 <malloc+0x54>
    211a:	10 97       	sbiw	r26, 0x00	; 0
    211c:	31 f0       	breq	.+12     	; 0x212a <malloc+0x4a>
    211e:	12 96       	adiw	r26, 0x02	; 2
    2120:	0c 93       	st	X, r16
    2122:	12 97       	sbiw	r26, 0x02	; 2
    2124:	13 96       	adiw	r26, 0x03	; 3
    2126:	1c 93       	st	X, r17
    2128:	27 c0       	rjmp	.+78     	; 0x2178 <malloc+0x98>
    212a:	00 93 2c 02 	sts	0x022C, r16	; 0x80022c <__flp>
    212e:	10 93 2d 02 	sts	0x022D, r17	; 0x80022d <__flp+0x1>
    2132:	22 c0       	rjmp	.+68     	; 0x2178 <malloc+0x98>
    2134:	21 15       	cp	r18, r1
    2136:	31 05       	cpc	r19, r1
    2138:	19 f0       	breq	.+6      	; 0x2140 <malloc+0x60>
    213a:	42 17       	cp	r20, r18
    213c:	53 07       	cpc	r21, r19
    213e:	18 f4       	brcc	.+6      	; 0x2146 <malloc+0x66>
    2140:	9a 01       	movw	r18, r20
    2142:	bd 01       	movw	r22, r26
    2144:	ef 01       	movw	r28, r30
    2146:	df 01       	movw	r26, r30
    2148:	f8 01       	movw	r30, r16
    214a:	db cf       	rjmp	.-74     	; 0x2102 <malloc+0x22>
    214c:	21 15       	cp	r18, r1
    214e:	31 05       	cpc	r19, r1
    2150:	f9 f0       	breq	.+62     	; 0x2190 <malloc+0xb0>
    2152:	28 1b       	sub	r18, r24
    2154:	39 0b       	sbc	r19, r25
    2156:	24 30       	cpi	r18, 0x04	; 4
    2158:	31 05       	cpc	r19, r1
    215a:	80 f4       	brcc	.+32     	; 0x217c <malloc+0x9c>
    215c:	8a 81       	ldd	r24, Y+2	; 0x02
    215e:	9b 81       	ldd	r25, Y+3	; 0x03
    2160:	61 15       	cp	r22, r1
    2162:	71 05       	cpc	r23, r1
    2164:	21 f0       	breq	.+8      	; 0x216e <malloc+0x8e>
    2166:	fb 01       	movw	r30, r22
    2168:	93 83       	std	Z+3, r25	; 0x03
    216a:	82 83       	std	Z+2, r24	; 0x02
    216c:	04 c0       	rjmp	.+8      	; 0x2176 <malloc+0x96>
    216e:	90 93 2d 02 	sts	0x022D, r25	; 0x80022d <__flp+0x1>
    2172:	80 93 2c 02 	sts	0x022C, r24	; 0x80022c <__flp>
    2176:	fe 01       	movw	r30, r28
    2178:	32 96       	adiw	r30, 0x02	; 2
    217a:	44 c0       	rjmp	.+136    	; 0x2204 <malloc+0x124>
    217c:	fe 01       	movw	r30, r28
    217e:	e2 0f       	add	r30, r18
    2180:	f3 1f       	adc	r31, r19
    2182:	81 93       	st	Z+, r24
    2184:	91 93       	st	Z+, r25
    2186:	22 50       	subi	r18, 0x02	; 2
    2188:	31 09       	sbc	r19, r1
    218a:	39 83       	std	Y+1, r19	; 0x01
    218c:	28 83       	st	Y, r18
    218e:	3a c0       	rjmp	.+116    	; 0x2204 <malloc+0x124>
    2190:	20 91 2a 02 	lds	r18, 0x022A	; 0x80022a <__brkval>
    2194:	30 91 2b 02 	lds	r19, 0x022B	; 0x80022b <__brkval+0x1>
    2198:	23 2b       	or	r18, r19
    219a:	41 f4       	brne	.+16     	; 0x21ac <malloc+0xcc>
    219c:	20 91 02 01 	lds	r18, 0x0102	; 0x800102 <__malloc_heap_start>
    21a0:	30 91 03 01 	lds	r19, 0x0103	; 0x800103 <__malloc_heap_start+0x1>
    21a4:	30 93 2b 02 	sts	0x022B, r19	; 0x80022b <__brkval+0x1>
    21a8:	20 93 2a 02 	sts	0x022A, r18	; 0x80022a <__brkval>
    21ac:	20 91 00 01 	lds	r18, 0x0100	; 0x800100 <__data_start>
    21b0:	30 91 01 01 	lds	r19, 0x0101	; 0x800101 <__data_start+0x1>
    21b4:	21 15       	cp	r18, r1
    21b6:	31 05       	cpc	r19, r1
    21b8:	41 f4       	brne	.+16     	; 0x21ca <malloc+0xea>
    21ba:	2d b7       	in	r18, 0x3d	; 61
    21bc:	3e b7       	in	r19, 0x3e	; 62
    21be:	40 91 04 01 	lds	r20, 0x0104	; 0x800104 <__malloc_margin>
    21c2:	50 91 05 01 	lds	r21, 0x0105	; 0x800105 <__malloc_margin+0x1>
    21c6:	24 1b       	sub	r18, r20
    21c8:	35 0b       	sbc	r19, r21
    21ca:	e0 91 2a 02 	lds	r30, 0x022A	; 0x80022a <__brkval>
    21ce:	f0 91 2b 02 	lds	r31, 0x022B	; 0x80022b <__brkval+0x1>
    21d2:	e2 17       	cp	r30, r18
    21d4:	f3 07       	cpc	r31, r19
    21d6:	a0 f4       	brcc	.+40     	; 0x2200 <malloc+0x120>
    21d8:	2e 1b       	sub	r18, r30
    21da:	3f 0b       	sbc	r19, r31
    21dc:	28 17       	cp	r18, r24
    21de:	39 07       	cpc	r19, r25
    21e0:	78 f0       	brcs	.+30     	; 0x2200 <malloc+0x120>
    21e2:	ac 01       	movw	r20, r24
    21e4:	4e 5f       	subi	r20, 0xFE	; 254
    21e6:	5f 4f       	sbci	r21, 0xFF	; 255
    21e8:	24 17       	cp	r18, r20
    21ea:	35 07       	cpc	r19, r21
    21ec:	48 f0       	brcs	.+18     	; 0x2200 <malloc+0x120>
    21ee:	4e 0f       	add	r20, r30
    21f0:	5f 1f       	adc	r21, r31
    21f2:	50 93 2b 02 	sts	0x022B, r21	; 0x80022b <__brkval+0x1>
    21f6:	40 93 2a 02 	sts	0x022A, r20	; 0x80022a <__brkval>
    21fa:	81 93       	st	Z+, r24
    21fc:	91 93       	st	Z+, r25
    21fe:	02 c0       	rjmp	.+4      	; 0x2204 <malloc+0x124>
    2200:	e0 e0       	ldi	r30, 0x00	; 0
    2202:	f0 e0       	ldi	r31, 0x00	; 0
    2204:	cf 01       	movw	r24, r30
    2206:	df 91       	pop	r29
    2208:	cf 91       	pop	r28
    220a:	1f 91       	pop	r17
    220c:	0f 91       	pop	r16
    220e:	08 95       	ret

00002210 <free>:
    2210:	cf 93       	push	r28
    2212:	df 93       	push	r29
    2214:	00 97       	sbiw	r24, 0x00	; 0
    2216:	09 f4       	brne	.+2      	; 0x221a <free+0xa>
    2218:	81 c0       	rjmp	.+258    	; 0x231c <free+0x10c>
    221a:	fc 01       	movw	r30, r24
    221c:	32 97       	sbiw	r30, 0x02	; 2
    221e:	13 82       	std	Z+3, r1	; 0x03
    2220:	12 82       	std	Z+2, r1	; 0x02
    2222:	a0 91 2c 02 	lds	r26, 0x022C	; 0x80022c <__flp>
    2226:	b0 91 2d 02 	lds	r27, 0x022D	; 0x80022d <__flp+0x1>
    222a:	10 97       	sbiw	r26, 0x00	; 0
    222c:	81 f4       	brne	.+32     	; 0x224e <free+0x3e>
    222e:	20 81       	ld	r18, Z
    2230:	31 81       	ldd	r19, Z+1	; 0x01
    2232:	82 0f       	add	r24, r18
    2234:	93 1f       	adc	r25, r19
    2236:	20 91 2a 02 	lds	r18, 0x022A	; 0x80022a <__brkval>
    223a:	30 91 2b 02 	lds	r19, 0x022B	; 0x80022b <__brkval+0x1>
    223e:	28 17       	cp	r18, r24
    2240:	39 07       	cpc	r19, r25
    2242:	51 f5       	brne	.+84     	; 0x2298 <free+0x88>
    2244:	f0 93 2b 02 	sts	0x022B, r31	; 0x80022b <__brkval+0x1>
    2248:	e0 93 2a 02 	sts	0x022A, r30	; 0x80022a <__brkval>
    224c:	67 c0       	rjmp	.+206    	; 0x231c <free+0x10c>
    224e:	ed 01       	movw	r28, r26
    2250:	20 e0       	ldi	r18, 0x00	; 0
    2252:	30 e0       	ldi	r19, 0x00	; 0
    2254:	ce 17       	cp	r28, r30
    2256:	df 07       	cpc	r29, r31
    2258:	40 f4       	brcc	.+16     	; 0x226a <free+0x5a>
    225a:	4a 81       	ldd	r20, Y+2	; 0x02
    225c:	5b 81       	ldd	r21, Y+3	; 0x03
    225e:	9e 01       	movw	r18, r28
    2260:	41 15       	cp	r20, r1
    2262:	51 05       	cpc	r21, r1
    2264:	f1 f0       	breq	.+60     	; 0x22a2 <free+0x92>
    2266:	ea 01       	movw	r28, r20
    2268:	f5 cf       	rjmp	.-22     	; 0x2254 <free+0x44>
    226a:	d3 83       	std	Z+3, r29	; 0x03
    226c:	c2 83       	std	Z+2, r28	; 0x02
    226e:	40 81       	ld	r20, Z
    2270:	51 81       	ldd	r21, Z+1	; 0x01
    2272:	84 0f       	add	r24, r20
    2274:	95 1f       	adc	r25, r21
    2276:	c8 17       	cp	r28, r24
    2278:	d9 07       	cpc	r29, r25
    227a:	59 f4       	brne	.+22     	; 0x2292 <free+0x82>
    227c:	88 81       	ld	r24, Y
    227e:	99 81       	ldd	r25, Y+1	; 0x01
    2280:	84 0f       	add	r24, r20
    2282:	95 1f       	adc	r25, r21
    2284:	02 96       	adiw	r24, 0x02	; 2
    2286:	91 83       	std	Z+1, r25	; 0x01
    2288:	80 83       	st	Z, r24
    228a:	8a 81       	ldd	r24, Y+2	; 0x02
    228c:	9b 81       	ldd	r25, Y+3	; 0x03
    228e:	93 83       	std	Z+3, r25	; 0x03
    2290:	82 83       	std	Z+2, r24	; 0x02
    2292:	21 15       	cp	r18, r1
    2294:	31 05       	cpc	r19, r1
    2296:	29 f4       	brne	.+10     	; 0x22a2 <free+0x92>
    2298:	f0 93 2d 02 	sts	0x022D, r31	; 0x80022d <__flp+0x1>
    229c:	e0 93 2c 02 	sts	0x022C, r30	; 0x80022c <__flp>
    22a0:	3d c0       	rjmp	.+122    	; 0x231c <free+0x10c>
    22a2:	e9 01       	movw	r28, r18
    22a4:	fb 83       	std	Y+3, r31	; 0x03
    22a6:	ea 83       	std	Y+2, r30	; 0x02
    22a8:	49 91       	ld	r20, Y+
    22aa:	59 91       	ld	r21, Y+
    22ac:	c4 0f       	add	r28, r20
    22ae:	d5 1f       	adc	r29, r21
    22b0:	ec 17       	cp	r30, r28
    22b2:	fd 07       	cpc	r31, r29
    22b4:	61 f4       	brne	.+24     	; 0x22ce <free+0xbe>
    22b6:	80 81       	ld	r24, Z
    22b8:	91 81       	ldd	r25, Z+1	; 0x01
    22ba:	84 0f       	add	r24, r20
    22bc:	95 1f       	adc	r25, r21
    22be:	02 96       	adiw	r24, 0x02	; 2
    22c0:	e9 01       	movw	r28, r18
    22c2:	99 83       	std	Y+1, r25	; 0x01
    22c4:	88 83       	st	Y, r24
    22c6:	82 81       	ldd	r24, Z+2	; 0x02
    22c8:	93 81       	ldd	r25, Z+3	; 0x03
    22ca:	9b 83       	std	Y+3, r25	; 0x03
    22cc:	8a 83       	std	Y+2, r24	; 0x02
    22ce:	e0 e0       	ldi	r30, 0x00	; 0
    22d0:	f0 e0       	ldi	r31, 0x00	; 0
    22d2:	12 96       	adiw	r26, 0x02	; 2
    22d4:	8d 91       	ld	r24, X+
    22d6:	9c 91       	ld	r25, X
    22d8:	13 97       	sbiw	r26, 0x03	; 3
    22da:	00 97       	sbiw	r24, 0x00	; 0
    22dc:	19 f0       	breq	.+6      	; 0x22e4 <free+0xd4>
    22de:	fd 01       	movw	r30, r26
    22e0:	dc 01       	movw	r26, r24
    22e2:	f7 cf       	rjmp	.-18     	; 0x22d2 <free+0xc2>
    22e4:	8d 91       	ld	r24, X+
    22e6:	9c 91       	ld	r25, X
    22e8:	11 97       	sbiw	r26, 0x01	; 1
    22ea:	9d 01       	movw	r18, r26
    22ec:	2e 5f       	subi	r18, 0xFE	; 254
    22ee:	3f 4f       	sbci	r19, 0xFF	; 255
    22f0:	82 0f       	add	r24, r18
    22f2:	93 1f       	adc	r25, r19
    22f4:	20 91 2a 02 	lds	r18, 0x022A	; 0x80022a <__brkval>
    22f8:	30 91 2b 02 	lds	r19, 0x022B	; 0x80022b <__brkval+0x1>
    22fc:	28 17       	cp	r18, r24
    22fe:	39 07       	cpc	r19, r25
    2300:	69 f4       	brne	.+26     	; 0x231c <free+0x10c>
    2302:	30 97       	sbiw	r30, 0x00	; 0
    2304:	29 f4       	brne	.+10     	; 0x2310 <free+0x100>
    2306:	10 92 2d 02 	sts	0x022D, r1	; 0x80022d <__flp+0x1>
    230a:	10 92 2c 02 	sts	0x022C, r1	; 0x80022c <__flp>
    230e:	02 c0       	rjmp	.+4      	; 0x2314 <free+0x104>
    2310:	13 82       	std	Z+3, r1	; 0x03
    2312:	12 82       	std	Z+2, r1	; 0x02
    2314:	b0 93 2b 02 	sts	0x022B, r27	; 0x80022b <__brkval+0x1>
    2318:	a0 93 2a 02 	sts	0x022A, r26	; 0x80022a <__brkval>
    231c:	df 91       	pop	r29
    231e:	cf 91       	pop	r28
    2320:	08 95       	ret

00002322 <strnlen_P>:
    2322:	fc 01       	movw	r30, r24
    2324:	05 90       	lpm	r0, Z+
    2326:	61 50       	subi	r22, 0x01	; 1
    2328:	70 40       	sbci	r23, 0x00	; 0
    232a:	01 10       	cpse	r0, r1
    232c:	d8 f7       	brcc	.-10     	; 0x2324 <strnlen_P+0x2>
    232e:	80 95       	com	r24
    2330:	90 95       	com	r25
    2332:	8e 0f       	add	r24, r30
    2334:	9f 1f       	adc	r25, r31
    2336:	08 95       	ret

00002338 <memset>:
    2338:	dc 01       	movw	r26, r24
    233a:	01 c0       	rjmp	.+2      	; 0x233e <memset+0x6>
    233c:	6d 93       	st	X+, r22
    233e:	41 50       	subi	r20, 0x01	; 1
    2340:	50 40       	sbci	r21, 0x00	; 0
    2342:	e0 f7       	brcc	.-8      	; 0x233c <memset+0x4>
    2344:	08 95       	ret

00002346 <strnlen>:
    2346:	fc 01       	movw	r30, r24
    2348:	61 50       	subi	r22, 0x01	; 1
    234a:	70 40       	sbci	r23, 0x00	; 0
    234c:	01 90       	ld	r0, Z+
    234e:	01 10       	cpse	r0, r1
    2350:	d8 f7       	brcc	.-10     	; 0x2348 <strnlen+0x2>
    2352:	80 95       	com	r24
    2354:	90 95       	com	r25
    2356:	8e 0f       	add	r24, r30
    2358:	9f 1f       	adc	r25, r31
    235a:	08 95       	ret

0000235c <fputc>:
    235c:	0f 93       	push	r16
    235e:	1f 93       	push	r17
    2360:	cf 93       	push	r28
    2362:	df 93       	push	r29
    2364:	fb 01       	movw	r30, r22
    2366:	23 81       	ldd	r18, Z+3	; 0x03
    2368:	21 fd       	sbrc	r18, 1
    236a:	03 c0       	rjmp	.+6      	; 0x2372 <fputc+0x16>
    236c:	8f ef       	ldi	r24, 0xFF	; 255
    236e:	9f ef       	ldi	r25, 0xFF	; 255
    2370:	2c c0       	rjmp	.+88     	; 0x23ca <fputc+0x6e>
    2372:	22 ff       	sbrs	r18, 2
    2374:	16 c0       	rjmp	.+44     	; 0x23a2 <fputc+0x46>
    2376:	46 81       	ldd	r20, Z+6	; 0x06
    2378:	57 81       	ldd	r21, Z+7	; 0x07
    237a:	24 81       	ldd	r18, Z+4	; 0x04
    237c:	35 81       	ldd	r19, Z+5	; 0x05
    237e:	42 17       	cp	r20, r18
    2380:	53 07       	cpc	r21, r19
    2382:	44 f4       	brge	.+16     	; 0x2394 <fputc+0x38>
    2384:	a0 81       	ld	r26, Z
    2386:	b1 81       	ldd	r27, Z+1	; 0x01
    2388:	9d 01       	movw	r18, r26
    238a:	2f 5f       	subi	r18, 0xFF	; 255
    238c:	3f 4f       	sbci	r19, 0xFF	; 255
    238e:	31 83       	std	Z+1, r19	; 0x01
    2390:	20 83       	st	Z, r18
    2392:	8c 93       	st	X, r24
    2394:	26 81       	ldd	r18, Z+6	; 0x06
    2396:	37 81       	ldd	r19, Z+7	; 0x07
    2398:	2f 5f       	subi	r18, 0xFF	; 255
    239a:	3f 4f       	sbci	r19, 0xFF	; 255
    239c:	37 83       	std	Z+7, r19	; 0x07
    239e:	26 83       	std	Z+6, r18	; 0x06
    23a0:	14 c0       	rjmp	.+40     	; 0x23ca <fputc+0x6e>
    23a2:	8b 01       	movw	r16, r22
    23a4:	ec 01       	movw	r28, r24
    23a6:	fb 01       	movw	r30, r22
    23a8:	00 84       	ldd	r0, Z+8	; 0x08
    23aa:	f1 85       	ldd	r31, Z+9	; 0x09
    23ac:	e0 2d       	mov	r30, r0
    23ae:	09 95       	icall
    23b0:	89 2b       	or	r24, r25
    23b2:	e1 f6       	brne	.-72     	; 0x236c <fputc+0x10>
    23b4:	d8 01       	movw	r26, r16
    23b6:	16 96       	adiw	r26, 0x06	; 6
    23b8:	8d 91       	ld	r24, X+
    23ba:	9c 91       	ld	r25, X
    23bc:	17 97       	sbiw	r26, 0x07	; 7
    23be:	01 96       	adiw	r24, 0x01	; 1
    23c0:	17 96       	adiw	r26, 0x07	; 7
    23c2:	9c 93       	st	X, r25
    23c4:	8e 93       	st	-X, r24
    23c6:	16 97       	sbiw	r26, 0x06	; 6
    23c8:	ce 01       	movw	r24, r28
    23ca:	df 91       	pop	r29
    23cc:	cf 91       	pop	r28
    23ce:	1f 91       	pop	r17
    23d0:	0f 91       	pop	r16
    23d2:	08 95       	ret

000023d4 <__ultoa_invert>:
    23d4:	fa 01       	movw	r30, r20
    23d6:	aa 27       	eor	r26, r26
    23d8:	28 30       	cpi	r18, 0x08	; 8
    23da:	51 f1       	breq	.+84     	; 0x2430 <__ultoa_invert+0x5c>
    23dc:	20 31       	cpi	r18, 0x10	; 16
    23de:	81 f1       	breq	.+96     	; 0x2440 <__ultoa_invert+0x6c>
    23e0:	e8 94       	clt
    23e2:	6f 93       	push	r22
    23e4:	6e 7f       	andi	r22, 0xFE	; 254
    23e6:	6e 5f       	subi	r22, 0xFE	; 254
    23e8:	7f 4f       	sbci	r23, 0xFF	; 255
    23ea:	8f 4f       	sbci	r24, 0xFF	; 255
    23ec:	9f 4f       	sbci	r25, 0xFF	; 255
    23ee:	af 4f       	sbci	r26, 0xFF	; 255
    23f0:	b1 e0       	ldi	r27, 0x01	; 1
    23f2:	3e d0       	rcall	.+124    	; 0x2470 <__ultoa_invert+0x9c>
    23f4:	b4 e0       	ldi	r27, 0x04	; 4
    23f6:	3c d0       	rcall	.+120    	; 0x2470 <__ultoa_invert+0x9c>
    23f8:	67 0f       	add	r22, r23
    23fa:	78 1f       	adc	r23, r24
    23fc:	89 1f       	adc	r24, r25
    23fe:	9a 1f       	adc	r25, r26
    2400:	a1 1d       	adc	r26, r1
    2402:	68 0f       	add	r22, r24
    2404:	79 1f       	adc	r23, r25
    2406:	8a 1f       	adc	r24, r26
    2408:	91 1d       	adc	r25, r1
    240a:	a1 1d       	adc	r26, r1
    240c:	6a 0f       	add	r22, r26
    240e:	71 1d       	adc	r23, r1
    2410:	81 1d       	adc	r24, r1
    2412:	91 1d       	adc	r25, r1
    2414:	a1 1d       	adc	r26, r1
    2416:	20 d0       	rcall	.+64     	; 0x2458 <__ultoa_invert+0x84>
    2418:	09 f4       	brne	.+2      	; 0x241c <__ultoa_invert+0x48>
    241a:	68 94       	set
    241c:	3f 91       	pop	r19
    241e:	2a e0       	ldi	r18, 0x0A	; 10
    2420:	26 9f       	mul	r18, r22
    2422:	11 24       	eor	r1, r1
    2424:	30 19       	sub	r19, r0
    2426:	30 5d       	subi	r19, 0xD0	; 208
    2428:	31 93       	st	Z+, r19
    242a:	de f6       	brtc	.-74     	; 0x23e2 <__ultoa_invert+0xe>
    242c:	cf 01       	movw	r24, r30
    242e:	08 95       	ret
    2430:	46 2f       	mov	r20, r22
    2432:	47 70       	andi	r20, 0x07	; 7
    2434:	40 5d       	subi	r20, 0xD0	; 208
    2436:	41 93       	st	Z+, r20
    2438:	b3 e0       	ldi	r27, 0x03	; 3
    243a:	0f d0       	rcall	.+30     	; 0x245a <__ultoa_invert+0x86>
    243c:	c9 f7       	brne	.-14     	; 0x2430 <__ultoa_invert+0x5c>
    243e:	f6 cf       	rjmp	.-20     	; 0x242c <__ultoa_invert+0x58>
    2440:	46 2f       	mov	r20, r22
    2442:	4f 70       	andi	r20, 0x0F	; 15
    2444:	40 5d       	subi	r20, 0xD0	; 208
    2446:	4a 33       	cpi	r20, 0x3A	; 58
    2448:	18 f0       	brcs	.+6      	; 0x2450 <__ultoa_invert+0x7c>
    244a:	49 5d       	subi	r20, 0xD9	; 217
    244c:	31 fd       	sbrc	r19, 1
    244e:	40 52       	subi	r20, 0x20	; 32
    2450:	41 93       	st	Z+, r20
    2452:	02 d0       	rcall	.+4      	; 0x2458 <__ultoa_invert+0x84>
    2454:	a9 f7       	brne	.-22     	; 0x2440 <__ultoa_invert+0x6c>
    2456:	ea cf       	rjmp	.-44     	; 0x242c <__ultoa_invert+0x58>
    2458:	b4 e0       	ldi	r27, 0x04	; 4
    245a:	a6 95       	lsr	r26
    245c:	97 95       	ror	r25
    245e:	87 95       	ror	r24
    2460:	77 95       	ror	r23
    2462:	67 95       	ror	r22
    2464:	ba 95       	dec	r27
    2466:	c9 f7       	brne	.-14     	; 0x245a <__ultoa_invert+0x86>
    2468:	00 97       	sbiw	r24, 0x00	; 0
    246a:	61 05       	cpc	r22, r1
    246c:	71 05       	cpc	r23, r1
    246e:	08 95       	ret
    2470:	9b 01       	movw	r18, r22
    2472:	ac 01       	movw	r20, r24
    2474:	0a 2e       	mov	r0, r26
    2476:	06 94       	lsr	r0
    2478:	57 95       	ror	r21
    247a:	47 95       	ror	r20
    247c:	37 95       	ror	r19
    247e:	27 95       	ror	r18
    2480:	ba 95       	dec	r27
    2482:	c9 f7       	brne	.-14     	; 0x2476 <__ultoa_invert+0xa2>
    2484:	62 0f       	add	r22, r18
    2486:	73 1f       	adc	r23, r19
    2488:	84 1f       	adc	r24, r20
    248a:	95 1f       	adc	r25, r21
    248c:	a0 1d       	adc	r26, r0
    248e:	08 95       	ret

00002490 <__prologue_saves__>:
    2490:	2f 92       	push	r2
    2492:	3f 92       	push	r3
    2494:	4f 92       	push	r4
    2496:	5f 92       	push	r5
    2498:	6f 92       	push	r6
    249a:	7f 92       	push	r7
    249c:	8f 92       	push	r8
    249e:	9f 92       	push	r9
    24a0:	af 92       	push	r10
    24a2:	bf 92       	push	r11
    24a4:	cf 92       	push	r12
    24a6:	df 92       	push	r13
    24a8:	ef 92       	push	r14
    24aa:	ff 92       	push	r15
    24ac:	0f 93       	push	r16
    24ae:	1f 93       	push	r17
    24b0:	cf 93       	push	r28
    24b2:	df 93       	push	r29
    24b4:	cd b7       	in	r28, 0x3d	; 61
    24b6:	de b7       	in	r29, 0x3e	; 62
    24b8:	ca 1b       	sub	r28, r26
    24ba:	db 0b       	sbc	r29, r27
    24bc:	0f b6       	in	r0, 0x3f	; 63
    24be:	f8 94       	cli
    24c0:	de bf       	out	0x3e, r29	; 62
    24c2:	0f be       	out	0x3f, r0	; 63
    24c4:	cd bf       	out	0x3d, r28	; 61
    24c6:	09 94       	ijmp

000024c8 <__epilogue_restores__>:
    24c8:	2a 88       	ldd	r2, Y+18	; 0x12
    24ca:	39 88       	ldd	r3, Y+17	; 0x11
    24cc:	48 88       	ldd	r4, Y+16	; 0x10
    24ce:	5f 84       	ldd	r5, Y+15	; 0x0f
    24d0:	6e 84       	ldd	r6, Y+14	; 0x0e
    24d2:	7d 84       	ldd	r7, Y+13	; 0x0d
    24d4:	8c 84       	ldd	r8, Y+12	; 0x0c
    24d6:	9b 84       	ldd	r9, Y+11	; 0x0b
    24d8:	aa 84       	ldd	r10, Y+10	; 0x0a
    24da:	b9 84       	ldd	r11, Y+9	; 0x09
    24dc:	c8 84       	ldd	r12, Y+8	; 0x08
    24de:	df 80       	ldd	r13, Y+7	; 0x07
    24e0:	ee 80       	ldd	r14, Y+6	; 0x06
    24e2:	fd 80       	ldd	r15, Y+5	; 0x05
    24e4:	0c 81       	ldd	r16, Y+4	; 0x04
    24e6:	1b 81       	ldd	r17, Y+3	; 0x03
    24e8:	aa 81       	ldd	r26, Y+2	; 0x02
    24ea:	b9 81       	ldd	r27, Y+1	; 0x01
    24ec:	ce 0f       	add	r28, r30
    24ee:	d1 1d       	adc	r29, r1
    24f0:	0f b6       	in	r0, 0x3f	; 63
    24f2:	f8 94       	cli
    24f4:	de bf       	out	0x3e, r29	; 62
    24f6:	0f be       	out	0x3f, r0	; 63
    24f8:	cd bf       	out	0x3d, r28	; 61
    24fa:	ed 01       	movw	r28, r26
    24fc:	08 95       	ret

000024fe <_exit>:
    24fe:	f8 94       	cli

00002500 <__stop_program>:
    2500:	ff cf       	rjmp	.-2      	; 0x2500 <__stop_program>
